

Microchip MPLAB XC8 Assembler V3.10 build 20250813170317 
                                                                                               Tue Jul  7 13:21:28 2026

Microchip MPLAB XC8 C Compiler v3.10 (Free license) build 20250813170317 Og1 
     1                           	processor	16F877A
     2                           	pagewidth 120
     3                           	opt	flic
     4                           	psect	idataBANK0,global,class=CODE,space=0,delta=2,noexec
     5                           	psect	strings,global,class=STRING,space=0,delta=2,noexec
     6                           	psect	cinit,global,class=CODE,space=0,merge=1,delta=2
     7                           	psect	bssCOMMON,global,class=COMMON,space=1,delta=1,noexec
     8                           	psect	bssBANK0,global,class=BANK0,space=1,delta=1,noexec
     9                           	psect	dataBANK0,global,class=BANK0,space=1,delta=1,noexec
    10                           	psect	clrtext,global,class=CODE,space=0,delta=2
    11                           	psect	cstackCOMMON,global,class=COMMON,space=1,delta=1,noexec
    12                           	psect	cstackBANK0,global,class=BANK0,space=1,delta=1,noexec
    13                           	psect	maintext,global,class=CODE,space=0,split=1,delta=2
    14                           	psect	text1,local,class=CODE,space=0,merge=1,delta=2
    15                           	psect	text2,local,class=CODE,space=0,merge=1,delta=2,group=1
    16                           	psect	text3,local,class=CODE,space=0,merge=1,delta=2
    17                           	psect	text4,local,class=CODE,space=0,merge=1,delta=2
    18                           	psect	text5,local,class=CODE,space=0,merge=1,delta=2
    19                           	psect	text6,local,class=CODE,space=0,merge=1,delta=2
    20                           	psect	text7,local,class=CODE,space=0,merge=1,delta=2
    21                           	psect	text8,local,class=CODE,space=0,merge=1,delta=2
    22                           	psect	text9,local,class=CODE,space=0,merge=1,delta=2
    23                           	psect	text10,local,class=CODE,space=0,merge=1,delta=2
    24                           	psect	text11,local,class=CODE,space=0,merge=1,delta=2
    25                           	psect	text12,local,class=CODE,space=0,merge=1,delta=2
    26                           	psect	text13,local,class=CODE,space=0,merge=1,delta=2
    27                           	psect	text14,local,class=CODE,space=0,merge=1,delta=2
    28                           	psect	text15,local,class=CODE,space=0,merge=1,delta=2
    29                           	psect	text16,local,class=CODE,space=0,merge=1,delta=2
    30                           	psect	text17,local,class=CODE,space=0,merge=1,delta=2,group=1
    31                           	psect	text18,local,class=CODE,space=0,merge=1,delta=2,group=1
    32                           	psect	text19,local,class=CODE,space=0,merge=1,delta=2,group=1
    33                           	psect	text20,local,class=CODE,space=0,merge=1,delta=2
    34                           	psect	intentry,global,class=CODE,space=0,delta=2
    35                           	psect	text21,local,class=CODE,space=0,merge=1,delta=2,group=1
    36                           	psect	config,global,abs,ovrld,class=CONFIG,space=4,delta=2,noexec
    37                           	dabs	1,0x7E,2
    38     0000                     
    39                           ; Version 2.20
    40                           ; Generated 12/02/2020 GMT
    41                           ; 
    42                           ; Copyright © 2020, Microchip Technology Inc. and its subsidiaries ("Microchip")
    43                           ; All rights reserved.
    44                           ; 
    45                           ; This software is developed by Microchip Technology Inc. and its subsidiaries ("Microch
      +                          ip").
    46                           ; 
    47                           ; Redistribution and use in source and binary forms, with or without modification, are
    48                           ; permitted provided that the following conditions are met:
    49                           ; 
    50                           ;     1. Redistributions of source code must retain the above copyright notice, this lis
      +                          t of
    51                           ;        conditions and the following disclaimer.
    52                           ; 
    53                           ;     2. Redistributions in binary form must reproduce the above copyright notice, this 
      +                          list
    54                           ;        of conditions and the following disclaimer in the documentation and/or other
    55                           ;        materials provided with the distribution.
    56                           ; 
    57                           ;     3. Microchip's name may not be used to endorse or promote products derived from th
      +                          is
    58                           ;        software without specific prior written permission.
    59                           ; 
    60                           ; THIS SOFTWARE IS PROVIDED BY MICROCHIP "AS IS" AND ANY EXPRESS OR IMPLIED WARRANTIES,
    61                           ; INCLUDING, BUT NOT LIMITED TO, THE IMPLIED WARRANTIES OF MERCHANTABILITY AND FITNESS F
      +                          OR
    62                           ; PURPOSE ARE DISCLAIMED.  IN NO EVENT SHALL MICROCHIP BE LIABLE FOR ANY DIRECT, INDIREC
      +                          T,
    63                           ; INCIDENTAL, SPECIAL, EXEMPLARY, OR CONSEQUENTIAL DAMAGES (INCLUDING BUT NOT LIMITED TO
    64                           ; PROCUREMENT OF SUBSTITUTE GOODS OR SERVICES; LOSS OF USE, DATA OR PROFITS; OR BUSINESS
    65                           ; INTERRUPTION) HOWSOEVER CAUSED AND ON ANY THEORY OF LIABILITY, WHETHER IN CONTRACT, ST
      +                          RICT
    66                           ; LIABILITY, OR TORT (INCLUDING NEGLIGENCE OR OTHERWISE) ARISING IN ANY WAY OUT OF THE U
      +                          SE OF
    67                           ; THIS SOFTWARE, EVEN IF ADVISED OF THE POSSIBILITY OF SUCH DAMAGE.
    68                           ; 
    69                           ; 
    70                           ; Code-generator required, PIC16F877A Definitions
    71                           ; 
    72                           ; SFR Addresses
    73     0004                     fsr             equ	4
    74     0004                     fsr0            equ	4
    75     0000                     indf            equ	0
    76     0000                     indf0           equ	0
    77     0002                     pc              equ	2
    78     0002                     pcl             equ	2
    79     000A                     pclath          equ	10
    80     0003                     status          equ	3
    81     0000                     INDF            equ	0	;# 
    82     0001                     TMR0            equ	1	;# 
    83     0002                     PCL             equ	2	;# 
    84     0003                     STATUS          equ	3	;# 
    85     0004                     FSR             equ	4	;# 
    86     0005                     PORTA           equ	5	;# 
    87     0006                     PORTB           equ	6	;# 
    88     0007                     PORTC           equ	7	;# 
    89     0008                     PORTD           equ	8	;# 
    90     0009                     PORTE           equ	9	;# 
    91     000A                     PCLATH          equ	10	;# 
    92     000B                     INTCON          equ	11	;# 
    93     000C                     PIR1            equ	12	;# 
    94     000D                     PIR2            equ	13	;# 
    95     000E                     TMR1            equ	14	;# 
    96     000E                     TMR1L           equ	14	;# 
    97     000F                     TMR1H           equ	15	;# 
    98     0010                     T1CON           equ	16	;# 
    99     0011                     TMR2            equ	17	;# 
   100     0012                     T2CON           equ	18	;# 
   101     0013                     SSPBUF          equ	19	;# 
   102     0014                     SSPCON          equ	20	;# 
   103     0015                     CCPR1           equ	21	;# 
   104     0015                     CCPR1L          equ	21	;# 
   105     0016                     CCPR1H          equ	22	;# 
   106     0017                     CCP1CON         equ	23	;# 
   107     0018                     RCSTA           equ	24	;# 
   108     0019                     TXREG           equ	25	;# 
   109     001A                     RCREG           equ	26	;# 
   110     001B                     CCPR2           equ	27	;# 
   111     001B                     CCPR2L          equ	27	;# 
   112     001C                     CCPR2H          equ	28	;# 
   113     001D                     CCP2CON         equ	29	;# 
   114     001E                     ADRESH          equ	30	;# 
   115     001F                     ADCON0          equ	31	;# 
   116     0081                     OPTION_REG      equ	129	;# 
   117     0085                     TRISA           equ	133	;# 
   118     0086                     TRISB           equ	134	;# 
   119     0087                     TRISC           equ	135	;# 
   120     0088                     TRISD           equ	136	;# 
   121     0089                     TRISE           equ	137	;# 
   122     008C                     PIE1            equ	140	;# 
   123     008D                     PIE2            equ	141	;# 
   124     008E                     PCON            equ	142	;# 
   125     0091                     SSPCON2         equ	145	;# 
   126     0092                     PR2             equ	146	;# 
   127     0093                     SSPADD          equ	147	;# 
   128     0094                     SSPSTAT         equ	148	;# 
   129     0098                     TXSTA           equ	152	;# 
   130     0099                     SPBRG           equ	153	;# 
   131     009C                     CMCON           equ	156	;# 
   132     009D                     CVRCON          equ	157	;# 
   133     009E                     ADRESL          equ	158	;# 
   134     009F                     ADCON1          equ	159	;# 
   135     010C                     EEDATA          equ	268	;# 
   136     010D                     EEADR           equ	269	;# 
   137     010E                     EEDATH          equ	270	;# 
   138     010F                     EEADRH          equ	271	;# 
   139     018C                     EECON1          equ	396	;# 
   140     018D                     EECON2          equ	397	;# 
   141     0000                     INDF            equ	0	;# 
   142     0001                     TMR0            equ	1	;# 
   143     0002                     PCL             equ	2	;# 
   144     0003                     STATUS          equ	3	;# 
   145     0004                     FSR             equ	4	;# 
   146     0005                     PORTA           equ	5	;# 
   147     0006                     PORTB           equ	6	;# 
   148     0007                     PORTC           equ	7	;# 
   149     0008                     PORTD           equ	8	;# 
   150     0009                     PORTE           equ	9	;# 
   151     000A                     PCLATH          equ	10	;# 
   152     000B                     INTCON          equ	11	;# 
   153     000C                     PIR1            equ	12	;# 
   154     000D                     PIR2            equ	13	;# 
   155     000E                     TMR1            equ	14	;# 
   156     000E                     TMR1L           equ	14	;# 
   157     000F                     TMR1H           equ	15	;# 
   158     0010                     T1CON           equ	16	;# 
   159     0011                     TMR2            equ	17	;# 
   160     0012                     T2CON           equ	18	;# 
   161     0013                     SSPBUF          equ	19	;# 
   162     0014                     SSPCON          equ	20	;# 
   163     0015                     CCPR1           equ	21	;# 
   164     0015                     CCPR1L          equ	21	;# 
   165     0016                     CCPR1H          equ	22	;# 
   166     0017                     CCP1CON         equ	23	;# 
   167     0018                     RCSTA           equ	24	;# 
   168     0019                     TXREG           equ	25	;# 
   169     001A                     RCREG           equ	26	;# 
   170     001B                     CCPR2           equ	27	;# 
   171     001B                     CCPR2L          equ	27	;# 
   172     001C                     CCPR2H          equ	28	;# 
   173     001D                     CCP2CON         equ	29	;# 
   174     001E                     ADRESH          equ	30	;# 
   175     001F                     ADCON0          equ	31	;# 
   176     0081                     OPTION_REG      equ	129	;# 
   177     0085                     TRISA           equ	133	;# 
   178     0086                     TRISB           equ	134	;# 
   179     0087                     TRISC           equ	135	;# 
   180     0088                     TRISD           equ	136	;# 
   181     0089                     TRISE           equ	137	;# 
   182     008C                     PIE1            equ	140	;# 
   183     008D                     PIE2            equ	141	;# 
   184     008E                     PCON            equ	142	;# 
   185     0091                     SSPCON2         equ	145	;# 
   186     0092                     PR2             equ	146	;# 
   187     0093                     SSPADD          equ	147	;# 
   188     0094                     SSPSTAT         equ	148	;# 
   189     0098                     TXSTA           equ	152	;# 
   190     0099                     SPBRG           equ	153	;# 
   191     009C                     CMCON           equ	156	;# 
   192     009D                     CVRCON          equ	157	;# 
   193     009E                     ADRESL          equ	158	;# 
   194     009F                     ADCON1          equ	159	;# 
   195     010C                     EEDATA          equ	268	;# 
   196     010D                     EEADR           equ	269	;# 
   197     010E                     EEDATH          equ	270	;# 
   198     010F                     EEADRH          equ	271	;# 
   199     018C                     EECON1          equ	396	;# 
   200     018D                     EECON2          equ	397	;# 
   201     0000                     INDF            equ	0	;# 
   202     0001                     TMR0            equ	1	;# 
   203     0002                     PCL             equ	2	;# 
   204     0003                     STATUS          equ	3	;# 
   205     0004                     FSR             equ	4	;# 
   206     0005                     PORTA           equ	5	;# 
   207     0006                     PORTB           equ	6	;# 
   208     0007                     PORTC           equ	7	;# 
   209     0008                     PORTD           equ	8	;# 
   210     0009                     PORTE           equ	9	;# 
   211     000A                     PCLATH          equ	10	;# 
   212     000B                     INTCON          equ	11	;# 
   213     000C                     PIR1            equ	12	;# 
   214     000D                     PIR2            equ	13	;# 
   215     000E                     TMR1            equ	14	;# 
   216     000E                     TMR1L           equ	14	;# 
   217     000F                     TMR1H           equ	15	;# 
   218     0010                     T1CON           equ	16	;# 
   219     0011                     TMR2            equ	17	;# 
   220     0012                     T2CON           equ	18	;# 
   221     0013                     SSPBUF          equ	19	;# 
   222     0014                     SSPCON          equ	20	;# 
   223     0015                     CCPR1           equ	21	;# 
   224     0015                     CCPR1L          equ	21	;# 
   225     0016                     CCPR1H          equ	22	;# 
   226     0017                     CCP1CON         equ	23	;# 
   227     0018                     RCSTA           equ	24	;# 
   228     0019                     TXREG           equ	25	;# 
   229     001A                     RCREG           equ	26	;# 
   230     001B                     CCPR2           equ	27	;# 
   231     001B                     CCPR2L          equ	27	;# 
   232     001C                     CCPR2H          equ	28	;# 
   233     001D                     CCP2CON         equ	29	;# 
   234     001E                     ADRESH          equ	30	;# 
   235     001F                     ADCON0          equ	31	;# 
   236     0081                     OPTION_REG      equ	129	;# 
   237     0085                     TRISA           equ	133	;# 
   238     0086                     TRISB           equ	134	;# 
   239     0087                     TRISC           equ	135	;# 
   240     0088                     TRISD           equ	136	;# 
   241     0089                     TRISE           equ	137	;# 
   242     008C                     PIE1            equ	140	;# 
   243     008D                     PIE2            equ	141	;# 
   244     008E                     PCON            equ	142	;# 
   245     0091                     SSPCON2         equ	145	;# 
   246     0092                     PR2             equ	146	;# 
   247     0093                     SSPADD          equ	147	;# 
   248     0094                     SSPSTAT         equ	148	;# 
   249     0098                     TXSTA           equ	152	;# 
   250     0099                     SPBRG           equ	153	;# 
   251     009C                     CMCON           equ	156	;# 
   252     009D                     CVRCON          equ	157	;# 
   253     009E                     ADRESL          equ	158	;# 
   254     009F                     ADCON1          equ	159	;# 
   255     010C                     EEDATA          equ	268	;# 
   256     010D                     EEADR           equ	269	;# 
   257     010E                     EEDATH          equ	270	;# 
   258     010F                     EEADRH          equ	271	;# 
   259     018C                     EECON1          equ	396	;# 
   260     018D                     EECON2          equ	397	;# 
   261     0000                     INDF            equ	0	;# 
   262     0001                     TMR0            equ	1	;# 
   263     0002                     PCL             equ	2	;# 
   264     0003                     STATUS          equ	3	;# 
   265     0004                     FSR             equ	4	;# 
   266     0005                     PORTA           equ	5	;# 
   267     0006                     PORTB           equ	6	;# 
   268     0007                     PORTC           equ	7	;# 
   269     0008                     PORTD           equ	8	;# 
   270     0009                     PORTE           equ	9	;# 
   271     000A                     PCLATH          equ	10	;# 
   272     000B                     INTCON          equ	11	;# 
   273     000C                     PIR1            equ	12	;# 
   274     000D                     PIR2            equ	13	;# 
   275     000E                     TMR1            equ	14	;# 
   276     000E                     TMR1L           equ	14	;# 
   277     000F                     TMR1H           equ	15	;# 
   278     0010                     T1CON           equ	16	;# 
   279     0011                     TMR2            equ	17	;# 
   280     0012                     T2CON           equ	18	;# 
   281     0013                     SSPBUF          equ	19	;# 
   282     0014                     SSPCON          equ	20	;# 
   283     0015                     CCPR1           equ	21	;# 
   284     0015                     CCPR1L          equ	21	;# 
   285     0016                     CCPR1H          equ	22	;# 
   286     0017                     CCP1CON         equ	23	;# 
   287     0018                     RCSTA           equ	24	;# 
   288     0019                     TXREG           equ	25	;# 
   289     001A                     RCREG           equ	26	;# 
   290     001B                     CCPR2           equ	27	;# 
   291     001B                     CCPR2L          equ	27	;# 
   292     001C                     CCPR2H          equ	28	;# 
   293     001D                     CCP2CON         equ	29	;# 
   294     001E                     ADRESH          equ	30	;# 
   295     001F                     ADCON0          equ	31	;# 
   296     0081                     OPTION_REG      equ	129	;# 
   297     0085                     TRISA           equ	133	;# 
   298     0086                     TRISB           equ	134	;# 
   299     0087                     TRISC           equ	135	;# 
   300     0088                     TRISD           equ	136	;# 
   301     0089                     TRISE           equ	137	;# 
   302     008C                     PIE1            equ	140	;# 
   303     008D                     PIE2            equ	141	;# 
   304     008E                     PCON            equ	142	;# 
   305     0091                     SSPCON2         equ	145	;# 
   306     0092                     PR2             equ	146	;# 
   307     0093                     SSPADD          equ	147	;# 
   308     0094                     SSPSTAT         equ	148	;# 
   309     0098                     TXSTA           equ	152	;# 
   310     0099                     SPBRG           equ	153	;# 
   311     009C                     CMCON           equ	156	;# 
   312     009D                     CVRCON          equ	157	;# 
   313     009E                     ADRESL          equ	158	;# 
   314     009F                     ADCON1          equ	159	;# 
   315     010C                     EEDATA          equ	268	;# 
   316     010D                     EEADR           equ	269	;# 
   317     010E                     EEDATH          equ	270	;# 
   318     010F                     EEADRH          equ	271	;# 
   319     018C                     EECON1          equ	396	;# 
   320     018D                     EECON2          equ	397	;# 
   321     0000                     INDF            equ	0	;# 
   322     0001                     TMR0            equ	1	;# 
   323     0002                     PCL             equ	2	;# 
   324     0003                     STATUS          equ	3	;# 
   325     0004                     FSR             equ	4	;# 
   326     0005                     PORTA           equ	5	;# 
   327     0006                     PORTB           equ	6	;# 
   328     0007                     PORTC           equ	7	;# 
   329     0008                     PORTD           equ	8	;# 
   330     0009                     PORTE           equ	9	;# 
   331     000A                     PCLATH          equ	10	;# 
   332     000B                     INTCON          equ	11	;# 
   333     000C                     PIR1            equ	12	;# 
   334     000D                     PIR2            equ	13	;# 
   335     000E                     TMR1            equ	14	;# 
   336     000E                     TMR1L           equ	14	;# 
   337     000F                     TMR1H           equ	15	;# 
   338     0010                     T1CON           equ	16	;# 
   339     0011                     TMR2            equ	17	;# 
   340     0012                     T2CON           equ	18	;# 
   341     0013                     SSPBUF          equ	19	;# 
   342     0014                     SSPCON          equ	20	;# 
   343     0015                     CCPR1           equ	21	;# 
   344     0015                     CCPR1L          equ	21	;# 
   345     0016                     CCPR1H          equ	22	;# 
   346     0017                     CCP1CON         equ	23	;# 
   347     0018                     RCSTA           equ	24	;# 
   348     0019                     TXREG           equ	25	;# 
   349     001A                     RCREG           equ	26	;# 
   350     001B                     CCPR2           equ	27	;# 
   351     001B                     CCPR2L          equ	27	;# 
   352     001C                     CCPR2H          equ	28	;# 
   353     001D                     CCP2CON         equ	29	;# 
   354     001E                     ADRESH          equ	30	;# 
   355     001F                     ADCON0          equ	31	;# 
   356     0081                     OPTION_REG      equ	129	;# 
   357     0085                     TRISA           equ	133	;# 
   358     0086                     TRISB           equ	134	;# 
   359     0087                     TRISC           equ	135	;# 
   360     0088                     TRISD           equ	136	;# 
   361     0089                     TRISE           equ	137	;# 
   362     008C                     PIE1            equ	140	;# 
   363     008D                     PIE2            equ	141	;# 
   364     008E                     PCON            equ	142	;# 
   365     0091                     SSPCON2         equ	145	;# 
   366     0092                     PR2             equ	146	;# 
   367     0093                     SSPADD          equ	147	;# 
   368     0094                     SSPSTAT         equ	148	;# 
   369     0098                     TXSTA           equ	152	;# 
   370     0099                     SPBRG           equ	153	;# 
   371     009C                     CMCON           equ	156	;# 
   372     009D                     CVRCON          equ	157	;# 
   373     009E                     ADRESL          equ	158	;# 
   374     009F                     ADCON1          equ	159	;# 
   375     010C                     EEDATA          equ	268	;# 
   376     010D                     EEADR           equ	269	;# 
   377     010E                     EEDATH          equ	270	;# 
   378     010F                     EEADRH          equ	271	;# 
   379     018C                     EECON1          equ	396	;# 
   380     018D                     EECON2          equ	397	;# 
   381     0000                     INDF            equ	0	;# 
   382     0001                     TMR0            equ	1	;# 
   383     0002                     PCL             equ	2	;# 
   384     0003                     STATUS          equ	3	;# 
   385     0004                     FSR             equ	4	;# 
   386     0005                     PORTA           equ	5	;# 
   387     0006                     PORTB           equ	6	;# 
   388     0007                     PORTC           equ	7	;# 
   389     0008                     PORTD           equ	8	;# 
   390     0009                     PORTE           equ	9	;# 
   391     000A                     PCLATH          equ	10	;# 
   392     000B                     INTCON          equ	11	;# 
   393     000C                     PIR1            equ	12	;# 
   394     000D                     PIR2            equ	13	;# 
   395     000E                     TMR1            equ	14	;# 
   396     000E                     TMR1L           equ	14	;# 
   397     000F                     TMR1H           equ	15	;# 
   398     0010                     T1CON           equ	16	;# 
   399     0011                     TMR2            equ	17	;# 
   400     0012                     T2CON           equ	18	;# 
   401     0013                     SSPBUF          equ	19	;# 
   402     0014                     SSPCON          equ	20	;# 
   403     0015                     CCPR1           equ	21	;# 
   404     0015                     CCPR1L          equ	21	;# 
   405     0016                     CCPR1H          equ	22	;# 
   406     0017                     CCP1CON         equ	23	;# 
   407     0018                     RCSTA           equ	24	;# 
   408     0019                     TXREG           equ	25	;# 
   409     001A                     RCREG           equ	26	;# 
   410     001B                     CCPR2           equ	27	;# 
   411     001B                     CCPR2L          equ	27	;# 
   412     001C                     CCPR2H          equ	28	;# 
   413     001D                     CCP2CON         equ	29	;# 
   414     001E                     ADRESH          equ	30	;# 
   415     001F                     ADCON0          equ	31	;# 
   416     0081                     OPTION_REG      equ	129	;# 
   417     0085                     TRISA           equ	133	;# 
   418     0086                     TRISB           equ	134	;# 
   419     0087                     TRISC           equ	135	;# 
   420     0088                     TRISD           equ	136	;# 
   421     0089                     TRISE           equ	137	;# 
   422     008C                     PIE1            equ	140	;# 
   423     008D                     PIE2            equ	141	;# 
   424     008E                     PCON            equ	142	;# 
   425     0091                     SSPCON2         equ	145	;# 
   426     0092                     PR2             equ	146	;# 
   427     0093                     SSPADD          equ	147	;# 
   428     0094                     SSPSTAT         equ	148	;# 
   429     0098                     TXSTA           equ	152	;# 
   430     0099                     SPBRG           equ	153	;# 
   431     009C                     CMCON           equ	156	;# 
   432     009D                     CVRCON          equ	157	;# 
   433     009E                     ADRESL          equ	158	;# 
   434     009F                     ADCON1          equ	159	;# 
   435     010C                     EEDATA          equ	268	;# 
   436     010D                     EEADR           equ	269	;# 
   437     010E                     EEDATH          equ	270	;# 
   438     010F                     EEADRH          equ	271	;# 
   439     018C                     EECON1          equ	396	;# 
   440     018D                     EECON2          equ	397	;# 
   441     0000                     INDF            equ	0	;# 
   442     0001                     TMR0            equ	1	;# 
   443     0002                     PCL             equ	2	;# 
   444     0003                     STATUS          equ	3	;# 
   445     0004                     FSR             equ	4	;# 
   446     0005                     PORTA           equ	5	;# 
   447     0006                     PORTB           equ	6	;# 
   448     0007                     PORTC           equ	7	;# 
   449     0008                     PORTD           equ	8	;# 
   450     0009                     PORTE           equ	9	;# 
   451     000A                     PCLATH          equ	10	;# 
   452     000B                     INTCON          equ	11	;# 
   453     000C                     PIR1            equ	12	;# 
   454     000D                     PIR2            equ	13	;# 
   455     000E                     TMR1            equ	14	;# 
   456     000E                     TMR1L           equ	14	;# 
   457     000F                     TMR1H           equ	15	;# 
   458     0010                     T1CON           equ	16	;# 
   459     0011                     TMR2            equ	17	;# 
   460     0012                     T2CON           equ	18	;# 
   461     0013                     SSPBUF          equ	19	;# 
   462     0014                     SSPCON          equ	20	;# 
   463     0015                     CCPR1           equ	21	;# 
   464     0015                     CCPR1L          equ	21	;# 
   465     0016                     CCPR1H          equ	22	;# 
   466     0017                     CCP1CON         equ	23	;# 
   467     0018                     RCSTA           equ	24	;# 
   468     0019                     TXREG           equ	25	;# 
   469     001A                     RCREG           equ	26	;# 
   470     001B                     CCPR2           equ	27	;# 
   471     001B                     CCPR2L          equ	27	;# 
   472     001C                     CCPR2H          equ	28	;# 
   473     001D                     CCP2CON         equ	29	;# 
   474     001E                     ADRESH          equ	30	;# 
   475     001F                     ADCON0          equ	31	;# 
   476     0081                     OPTION_REG      equ	129	;# 
   477     0085                     TRISA           equ	133	;# 
   478     0086                     TRISB           equ	134	;# 
   479     0087                     TRISC           equ	135	;# 
   480     0088                     TRISD           equ	136	;# 
   481     0089                     TRISE           equ	137	;# 
   482     008C                     PIE1            equ	140	;# 
   483     008D                     PIE2            equ	141	;# 
   484     008E                     PCON            equ	142	;# 
   485     0091                     SSPCON2         equ	145	;# 
   486     0092                     PR2             equ	146	;# 
   487     0093                     SSPADD          equ	147	;# 
   488     0094                     SSPSTAT         equ	148	;# 
   489     0098                     TXSTA           equ	152	;# 
   490     0099                     SPBRG           equ	153	;# 
   491     009C                     CMCON           equ	156	;# 
   492     009D                     CVRCON          equ	157	;# 
   493     009E                     ADRESL          equ	158	;# 
   494     009F                     ADCON1          equ	159	;# 
   495     010C                     EEDATA          equ	268	;# 
   496     010D                     EEADR           equ	269	;# 
   497     010E                     EEDATH          equ	270	;# 
   498     010F                     EEADRH          equ	271	;# 
   499     018C                     EECON1          equ	396	;# 
   500     018D                     EECON2          equ	397	;# 
   501                           
   502                           	psect	idataBANK0
   503     07FD                     __pidataBANK0:
   504                           
   505                           ;initializer for convection@set_temp_step
   506     07FD  3401               	retlw	1
   507                           
   508                           ;initializer for read_matrix_keypad@once
   509     07FE  3401               	retlw	1
   510     0008                     _PORTD          set	8
   511     0091                     _T2CKPS1        set	145
   512     0090                     _T2CKPS0        set	144
   513     0092                     _TMR2ON         set	146
   514     0032                     _RB2            set	50
   515     0031                     _RB1            set	49
   516     0030                     _RB0            set	48
   517     0040                     _RD0            set	64
   518     0041                     _RD1            set	65
   519     0042                     _RD2            set	66
   520     0043                     _RD3            set	67
   521     005F                     _GIE            set	95
   522     005E                     _PEIE           set	94
   523     003A                     _RC2            set	58
   524     0039                     _RC1            set	57
   525     0061                     _TMR2IF         set	97
   526     0049                     _RE1            set	73
   527     004A                     _RE2            set	74
   528     0092                     _PR2            set	146
   529     0086                     _TRISB          set	134
   530     0088                     _TRISD          set	136
   531     0461                     _TMR2IE         set	1121
   532     040F                     _nRBPU          set	1039
   533     043A                     _TRISC2         set	1082
   534     0439                     _TRISC1         set	1081
   535     0449                     _TRISE1         set	1097
   536     044A                     _TRISE2         set	1098
   537                           
   538                           	psect	strings
   539     0500                     __pstrings:
   540     0500                     stringtab:
   541     0500                     __stringtab:
   542                           
   543                           ;	String table - string pointers are 1 byte each
   544     0500  1BFF               	btfsc	btemp+1,7
   545     0501  2D0A               	ljmp	stringcode
   546     0502  1383               	bcf	3,7
   547     0503  187F               	btfsc	btemp+1,0
   548     0504  1783               	bsf	3,7
   549     0505  0800               	movf	0,w
   550     0506  0A84               	incf	4,f
   551     0507  1903               	skipnz
   552     0508  0AFF               	incf	btemp+1,f
   553     0509  0008               	return
   554     050A                     stringcode:
   555     050A                     stringdir:
   556     050A  3005               	movlw	high stringdir
   557     050B  008A               	movwf	10
   558     050C  0804               	movf	4,w
   559     050D  0A84               	incf	4,f
   560     050E  0782               	addwf	2,f
   561     050F                     __stringbase:
   562     050F  3400               	retlw	0
   563     0510                     __end_of__stringtab:
   564     0510                     STR_5:
   565     0510  3420               	retlw	32	;' '
   566     0511  3420               	retlw	32	;' '
   567     0512  3450               	retlw	80	;'P'
   568     0513  346F               	retlw	111	;'o'
   569     0514  3477               	retlw	119	;'w'
   570     0515  3465               	retlw	101	;'e'
   571     0516  3472               	retlw	114	;'r'
   572     0517  3469               	retlw	105	;'i'
   573     0518  346E               	retlw	110	;'n'
   574     0519  3467               	retlw	103	;'g'
   575     051A  3420               	retlw	32	;' '
   576     051B  344F               	retlw	79	;'O'
   577     051C  344E               	retlw	78	;'N'
   578     051D  3420               	retlw	32	;' '
   579     051E  3420               	retlw	32	;' '
   580     051F  3420               	retlw	32	;' '
   581     0520  3400               	retlw	0
   582     0521                     STR_16:
   583     0521  3420               	retlw	32	;' '
   584     0522  3420               	retlw	32	;' '
   585     0523  3450               	retlw	80	;'P'
   586     0524  3472               	retlw	114	;'r'
   587     0525  3465               	retlw	101	;'e'
   588     0526  342D               	retlw	45	;'-'
   589     0527  3448               	retlw	72	;'H'
   590     0528  3465               	retlw	101	;'e'
   591     0529  3461               	retlw	97	;'a'
   592     052A  3474               	retlw	116	;'t'
   593     052B  3469               	retlw	105	;'i'
   594     052C  346E               	retlw	110	;'n'
   595     052D  3467               	retlw	103	;'g'
   596     052E  3420               	retlw	32	;' '
   597     052F  3420               	retlw	32	;' '
   598     0530  3420               	retlw	32	;' '
   599     0531  3400               	retlw	0
   600     0532                     STR_6:
   601     0532  3420               	retlw	32	;' '
   602     0533  344D               	retlw	77	;'M'
   603     0534  3469               	retlw	105	;'i'
   604     0535  3463               	retlw	99	;'c'
   605     0536  3472               	retlw	114	;'r'
   606     0537  346F               	retlw	111	;'o'
   607     0538  3477               	retlw	119	;'w'
   608     0539  3461               	retlw	97	;'a'
   609     053A  3476               	retlw	118	;'v'
   610     053B  3465               	retlw	101	;'e'
   611     053C  3420               	retlw	32	;' '
   612     053D  344F               	retlw	79	;'O'
   613     053E  3476               	retlw	118	;'v'
   614     053F  3465               	retlw	101	;'e'
   615     0540  346E               	retlw	110	;'n'
   616     0541  3420               	retlw	32	;' '
   617     0542  3400               	retlw	0
   618     0543                     STR_7:
   619     0543  3453               	retlw	83	;'S'
   620     0544  3445               	retlw	69	;'E'
   621     0545  3454               	retlw	84	;'T'
   622     0546  3420               	retlw	32	;' '
   623     0547  3454               	retlw	84	;'T'
   624     0548  3449               	retlw	73	;'I'
   625     0549  344D               	retlw	77	;'M'
   626     054A  3445               	retlw	69	;'E'
   627     054B  3420               	retlw	32	;' '
   628     054C  343C               	retlw	60	;'<'
   629     054D  344D               	retlw	77	;'M'
   630     054E  344D               	retlw	77	;'M'
   631     054F  343A               	retlw	58	;':'
   632     0550  3453               	retlw	83	;'S'
   633     0551  3453               	retlw	83	;'S'
   634     0552  343E               	retlw	62	;'>'
   635     0553  3400               	retlw	0
   636     0554                     STR_9:
   637     0554  342A               	retlw	42	;'*'
   638     0555  343A               	retlw	58	;':'
   639     0556  3443               	retlw	67	;'C'
   640     0557  344C               	retlw	76	;'L'
   641     0558  3445               	retlw	69	;'E'
   642     0559  3441               	retlw	65	;'A'
   643     055A  3452               	retlw	82	;'R'
   644     055B  3420               	retlw	32	;' '
   645     055C  3420               	retlw	32	;' '
   646     055D  3423               	retlw	35	;'#'
   647     055E  343A               	retlw	58	;':'
   648     055F  3445               	retlw	69	;'E'
   649     0560  344E               	retlw	78	;'N'
   650     0561  3454               	retlw	84	;'T'
   651     0562  3445               	retlw	69	;'E'
   652     0563  3452               	retlw	82	;'R'
   653     0564  3400               	retlw	0
   654     0565                     STR_12:
   655     0565  3453               	retlw	83	;'S'
   656     0566  3445               	retlw	69	;'E'
   657     0567  3454               	retlw	84	;'T'
   658     0568  3420               	retlw	32	;' '
   659     0569  3454               	retlw	84	;'T'
   660     056A  3445               	retlw	69	;'E'
   661     056B  344D               	retlw	77	;'M'
   662     056C  3450               	retlw	80	;'P'
   663     056D  3420               	retlw	32	;' '
   664     056E  3428               	retlw	40	;'('
   665     056F  345E               	retlw	94	;'^'
   666     0570  3443               	retlw	67	;'C'
   667     0571  3429               	retlw	41	;')'
   668     0572  3420               	retlw	32	;' '
   669     0573  3420               	retlw	32	;' '
   670     0574  3400               	retlw	0
   671     0575                     STR_23:
   672     0575  3445               	retlw	69	;'E'
   673     0576  346E               	retlw	110	;'n'
   674     0577  346A               	retlw	106	;'j'
   675     0578  346F               	retlw	111	;'o'
   676     0579  3479               	retlw	121	;'y'
   677     057A  3420               	retlw	32	;' '
   678     057B  3479               	retlw	121	;'y'
   679     057C  346F               	retlw	111	;'o'
   680     057D  3475               	retlw	117	;'u'
   681     057E  3472               	retlw	114	;'r'
   682     057F  3420               	retlw	32	;' '
   683     0580  346D               	retlw	109	;'m'
   684     0581  3465               	retlw	101	;'e'
   685     0582  3461               	retlw	97	;'a'
   686     0583  346C               	retlw	108	;'l'
   687     0584  3400               	retlw	0
   688     0585                     STR_19:
   689     0585  3434               	retlw	52	;'4'
   690     0586  342E               	retlw	46	;'.'
   691     0587  3453               	retlw	83	;'S'
   692     0588  3454               	retlw	84	;'T'
   693     0589  3441               	retlw	65	;'A'
   694     058A  3452               	retlw	82	;'R'
   695     058B  3454               	retlw	84	;'T'
   696     058C  342F               	retlw	47	;'/'
   697     058D  3452               	retlw	82	;'R'
   698     058E  3445               	retlw	69	;'E'
   699     058F  3453               	retlw	83	;'S'
   700     0590  3455               	retlw	85	;'U'
   701     0591  344D               	retlw	77	;'M'
   702     0592  3445               	retlw	69	;'E'
   703     0593  3400               	retlw	0
   704     0594                     STR_17:
   705     0594  3420               	retlw	32	;' '
   706     0595  3454               	retlw	84	;'T'
   707     0596  3469               	retlw	105	;'i'
   708     0597  346D               	retlw	109	;'m'
   709     0598  3465               	retlw	101	;'e'
   710     0599  3420               	retlw	32	;' '
   711     059A  344C               	retlw	76	;'L'
   712     059B  3465               	retlw	101	;'e'
   713     059C  3466               	retlw	102	;'f'
   714     059D  3474               	retlw	116	;'t'
   715     059E  343A               	retlw	58	;':'
   716     059F  3420               	retlw	32	;' '
   717     05A0  3400               	retlw	0
   718     05A1                     STR_3:
   719     05A1  3433               	retlw	51	;'3'
   720     05A2  342E               	retlw	46	;'.'
   721     05A3  3443               	retlw	67	;'C'
   722     05A4  346F               	retlw	111	;'o'
   723     05A5  346E               	retlw	110	;'n'
   724     05A6  3476               	retlw	118	;'v'
   725     05A7  3465               	retlw	101	;'e'
   726     05A8  3463               	retlw	99	;'c'
   727     05A9  3474               	retlw	116	;'t'
   728     05AA  3469               	retlw	105	;'i'
   729     05AB  346F               	retlw	111	;'o'
   730     05AC  346E               	retlw	110	;'n'
   731     05AD  3400               	retlw	0
   732     05AE                     STR_8:
   733     05AE  3454               	retlw	84	;'T'
   734     05AF  3449               	retlw	73	;'I'
   735     05B0  344D               	retlw	77	;'M'
   736     05B1  3445               	retlw	69	;'E'
   737     05B2  343A               	retlw	58	;':'
   738     05B3  3420               	retlw	32	;' '
   739     05B4  3430               	retlw	48	;'0'
   740     05B5  3430               	retlw	48	;'0'
   741     05B6  343A               	retlw	58	;':'
   742     05B7  3430               	retlw	48	;'0'
   743     05B8  3430               	retlw	48	;'0'
   744     05B9  3400               	retlw	0
   745     05BA                     STR_22:
   746     05BA  3454               	retlw	84	;'T'
   747     05BB  3469               	retlw	105	;'i'
   748     05BC  346D               	retlw	109	;'m'
   749     05BD  3465               	retlw	101	;'e'
   750     05BE  3420               	retlw	32	;' '
   751     05BF  3455               	retlw	85	;'U'
   752     05C0  3450               	retlw	80	;'P'
   753     05C1  3421               	retlw	33	;'!'
   754     05C2  3421               	retlw	33	;'!'
   755     05C3  3421               	retlw	33	;'!'
   756     05C4  3400               	retlw	0
   757     05C5                     STR_13:
   758     05C5  3454               	retlw	84	;'T'
   759     05C6  3445               	retlw	69	;'E'
   760     05C7  344D               	retlw	77	;'M'
   761     05C8  3450               	retlw	80	;'P'
   762     05C9  343A               	retlw	58	;':'
   763     05CA  3420               	retlw	32	;' '
   764     05CB  3430               	retlw	48	;'0'
   765     05CC  3430               	retlw	48	;'0'
   766     05CD  3430               	retlw	48	;'0'
   767     05CE  3400               	retlw	0
   768     05CF                     STR_18:
   769     05CF  3454               	retlw	84	;'T'
   770     05D0  3449               	retlw	73	;'I'
   771     05D1  344D               	retlw	77	;'M'
   772     05D2  3445               	retlw	69	;'E'
   773     05D3  3420               	retlw	32	;' '
   774     05D4  343D               	retlw	61	;'='
   775     05D5  3420               	retlw	32	;' '
   776     05D6  3420               	retlw	32	;' '
   777     05D7  3400               	retlw	0
   778     05D8                     STR_20:
   779     05D8  3435               	retlw	53	;'5'
   780     05D9  342E               	retlw	46	;'.'
   781     05DA  3450               	retlw	80	;'P'
   782     05DB  3441               	retlw	65	;'A'
   783     05DC  3455               	retlw	85	;'U'
   784     05DD  3453               	retlw	83	;'S'
   785     05DE  3445               	retlw	69	;'E'
   786     05DF  3400               	retlw	0
   787     05E0                     STR_2:
   788     05E0  3432               	retlw	50	;'2'
   789     05E1  342E               	retlw	46	;'.'
   790     05E2  3447               	retlw	71	;'G'
   791     05E3  3472               	retlw	114	;'r'
   792     05E4  3469               	retlw	105	;'i'
   793     05E5  346C               	retlw	108	;'l'
   794     05E6  346C               	retlw	108	;'l'
   795     05E7  3400               	retlw	0
   796     05E8                     STR_1:
   797     05E8  3431               	retlw	49	;'1'
   798     05E9  342E               	retlw	46	;'.'
   799     05EA  344D               	retlw	77	;'M'
   800     05EB  3469               	retlw	105	;'i'
   801     05EC  3463               	retlw	99	;'c'
   802     05ED  3472               	retlw	114	;'r'
   803     05EE  346F               	retlw	111	;'o'
   804     05EF  3400               	retlw	0
   805     05F0                     STR_4:
   806     05F0  3434               	retlw	52	;'4'
   807     05F1  342E               	retlw	46	;'.'
   808     05F2  3453               	retlw	83	;'S'
   809     05F3  3474               	retlw	116	;'t'
   810     05F4  3461               	retlw	97	;'a'
   811     05F5  3472               	retlw	114	;'r'
   812     05F6  3474               	retlw	116	;'t'
   813     05F7  3400               	retlw	0
   814     05F8                     STR_21:
   815     05F8  3436               	retlw	54	;'6'
   816     05F9  342E               	retlw	46	;'.'
   817     05FA  3453               	retlw	83	;'S'
   818     05FB  3454               	retlw	84	;'T'
   819     05FC  344F               	retlw	79	;'O'
   820     05FD  3450               	retlw	80	;'P'
   821     05FE  3400               	retlw	0
   822     0554                     STR_14          equ	STR_9
   823     051D                     STR_15          equ	STR_5+13
   824     051E                     STR_10          equ	STR_5+14
   825     051E                     STR_11          equ	STR_5+14
   826                           
   827                           	psect	cinit
   828     0011                     start_initialization:	
   829                           ; #config settings
   830                           
   831     0011                     __initialization:
   832                           
   833                           ; Initialize objects allocated to BANK0
   834     0011  120A  118A  27FD  120A  118A  	fcall	__pidataBANK0	;fetch initializer
   835     0016  00CD               	movwf	__pdataBANK0& (0+127)
   836     0017  120A  118A  27FE  120A  118A  	fcall	__pidataBANK0+1	;fetch initializer
   837     001C  00CE               	movwf	(__pdataBANK0+1)& (0+127)
   838                           
   839                           ; Clear objects allocated to BANK0
   840     001D  1383               	bcf	3,7	;select IRP bank0
   841     001E  3039               	movlw	low __pbssBANK0
   842     001F  0084               	movwf	4
   843     0020  304D               	movlw	low (__pbssBANK0+20)
   844     0021  120A  118A  24F8  120A  118A  	fcall	clear_ram0
   845                           
   846                           ; Clear objects allocated to COMMON
   847     0026  01F8               	clrf	__pbssCOMMON& (0+127)
   848     0027  01F9               	clrf	(__pbssCOMMON+1)& (0+127)
   849     0028                     end_of_initialization:	
   850                           ;End of C runtime variable initialization code
   851                           
   852     0028                     __end_of__initialization:
   853     0028  0183               	clrf	3
   854     0029  120A  118A  2DFF   	ljmp	_main	;jump to C main() function
   855                           
   856                           	psect	bssCOMMON
   857     0078                     __pbssCOMMON:
   858     0078                     isr@count:
   859     0078                     	ds	2
   860                           
   861                           	psect	bssBANK0
   862     0039                     __pbssBANK0:
   863     0039                     _min:
   864     0039                     	ds	2
   865     003B                     _sec:
   866     003B                     	ds	2
   867     003D                     display_timer@pause:
   868     003D                     	ds	1
   869     003E                     convection@temp:
   870     003E                     	ds	1
   871     003F                     _blink_pos:
   872     003F                     	ds	1
   873     0040                     _key_count:
   874     0040                     	ds	1
   875     0041                     _countdown_flag:
   876     0041                     	ds	1
   877     0042                     _blink:
   878     0042                     	ds	1
   879     0043                     _Temp:
   880     0043                     	ds	4
   881     0047                     _Secs:
   882     0047                     	ds	3
   883     004A                     _Mins:
   884     004A                     	ds	3
   885                           
   886                           	psect	dataBANK0
   887     004D                     __pdataBANK0:
   888     004D                     convection@set_temp_step:
   889     004D                     	ds	1
   890     004E                     read_matrix_keypad@once:
   891     004E                     	ds	1
   892                           
   893                           	psect	clrtext
   894     04F8                     clear_ram0:	
   895                           ;	Called with FSR containing the base address, and
   896                           ;	W with the last address+1
   897                           
   898     04F8  0064               	clrwdt	;clear the watchdog before getting into this loop
   899     04F9                     clrloop0:
   900     04F9  0180               	clrf	0	;clear RAM location pointed to by FSR
   901     04FA  0A84               	incf	4,f	;increment pointer
   902     04FB  0604               	xorwf	4,w	;XOR with final address
   903     04FC  1903               	btfsc	3,2	;have we reached the end yet?
   904     04FD  3400               	retlw	0	;all done for this memory range, return
   905     04FE  0604               	xorwf	4,w	;XOR again to restore value
   906     04FF  2CF9               	goto	clrloop0	;do the next byte
   907                           
   908                           	psect	cstackCOMMON
   909     0070                     __pcstackCOMMON:
   910     0070                     ?_init_matrix_keypad:
   911     0070                     ?_init_timer2:	
   912                           ; 1 bytes @ 0x0
   913                           
   914     0070                     ?_power_on:	
   915                           ; 1 bytes @ 0x0
   916                           
   917     0070                     ?_read_matrix_keypad:	
   918                           ; 1 bytes @ 0x0
   919                           
   920     0070                     ?_init_display_controller:	
   921                           ; 1 bytes @ 0x0
   922                           
   923     0070                     ?_init_clcd:	
   924                           ; 1 bytes @ 0x0
   925                           
   926     0070                     ?_clear_screen:	
   927                           ; 1 bytes @ 0x0
   928                           
   929     0070                     ?_isr:	
   930                           ; 1 bytes @ 0x0
   931                           
   932     0070                     ?_init_config:	
   933                           ; 1 bytes @ 0x0
   934                           
   935     0070                     ?_main:	
   936                           ; 1 bytes @ 0x0
   937                           
   938     0070                     ?_scan_keypad:	
   939                           ; 1 bytes @ 0x0
   940                           
   941     0070                     ?___lwmod:	
   942                           ; 1 bytes @ 0x0
   943                           
   944     0070                     ___lwmod@divisor:	
   945                           ; 2 bytes @ 0x0
   946                           
   947                           
   948                           ; 2 bytes @ 0x0
   949     0070                     	ds	2
   950     0072                     ___lwmod@dividend:
   951                           
   952                           ; 2 bytes @ 0x2
   953     0072                     	ds	2
   954     0074                     ___lwmod@counter:
   955     0074                     ??___lwmod:	
   956                           ; 1 bytes @ 0x4
   957                           
   958                           
   959                           ; 1 bytes @ 0x4
   960     0074                     	ds	1
   961     0075                     ??_isr:
   962                           
   963                           ; 1 bytes @ 0x5
   964     0075                     	ds	3
   965                           
   966                           	psect	cstackBANK0
   967     0020                     __pcstackBANK0:
   968     0020                     ?_clcd_write:
   969     0020                     ?___bmul:	
   970                           ; 1 bytes @ 0x0
   971                           
   972     0020                     ?___awdiv:	
   973                           ; 1 bytes @ 0x0
   974                           
   975     0020                     clcd_write@mode:	
   976                           ; 2 bytes @ 0x0
   977                           
   978     0020                     ___bmul@multiplicand:	
   979                           ; 1 bytes @ 0x0
   980                           
   981     0020                     scan_keypad@i:	
   982                           ; 1 bytes @ 0x0
   983                           
   984     0020                     ___awdiv@divisor:	
   985                           ; 2 bytes @ 0x0
   986                           
   987     0020                     ??_init_matrix_keypad:	
   988                           ; 2 bytes @ 0x0
   989                           
   990     0020                     ??_init_timer2:	
   991                           ; 1 bytes @ 0x0
   992                           
   993     0020                     ??_scan_keypad:	
   994                           ; 1 bytes @ 0x0
   995                           
   996                           
   997                           ; 1 bytes @ 0x0
   998     0020                     	ds	1
   999     0021                     ___bmul@product:
  1000     0021                     ??_clcd_write:	
  1001                           ; 1 bytes @ 0x1
  1002                           
  1003     0021                     ??___bmul:	
  1004                           ; 1 bytes @ 0x1
  1005                           
  1006                           
  1007                           ; 1 bytes @ 0x1
  1008     0021                     	ds	1
  1009     0022                     read_matrix_keypad@mode:
  1010     0022                     ___bmul@multiplier:	
  1011                           ; 1 bytes @ 0x2
  1012                           
  1013     0022                     ___awdiv@dividend:	
  1014                           ; 1 bytes @ 0x2
  1015                           
  1016     0022                     ??_read_matrix_keypad:	
  1017                           ; 2 bytes @ 0x2
  1018                           
  1019                           
  1020                           ; 1 bytes @ 0x2
  1021     0022                     	ds	1
  1022     0023                     clcd_write@byte:
  1023     0023                     read_matrix_keypad@key:	
  1024                           ; 1 bytes @ 0x3
  1025                           
  1026                           
  1027                           ; 1 bytes @ 0x3
  1028     0023                     	ds	1
  1029     0024                     ?_clcd_putch:
  1030     0024                     ?_clcd_print:	
  1031                           ; 1 bytes @ 0x4
  1032                           
  1033     0024                     clcd_putch@addr:	
  1034                           ; 1 bytes @ 0x4
  1035                           
  1036     0024                     ___awdiv@counter:	
  1037                           ; 1 bytes @ 0x4
  1038                           
  1039     0024                     clcd_print@str:	
  1040                           ; 1 bytes @ 0x4
  1041                           
  1042     0024                     ??_init_display_controller:	
  1043                           ; 2 bytes @ 0x4
  1044                           
  1045     0024                     ??_clear_screen:	
  1046                           ; 1 bytes @ 0x4
  1047                           
  1048     0024                     ??___awdiv:	
  1049                           ; 1 bytes @ 0x4
  1050                           
  1051                           
  1052                           ; 1 bytes @ 0x4
  1053     0024                     	ds	1
  1054     0025                     clcd_putch@data:
  1055     0025                     ___awdiv@sign:	
  1056                           ; 1 bytes @ 0x5
  1057                           
  1058     0025                     ??_clcd_putch:	
  1059                           ; 1 bytes @ 0x5
  1060                           
  1061                           
  1062                           ; 1 bytes @ 0x5
  1063     0025                     	ds	1
  1064     0026                     clcd_print@addr:
  1065     0026                     ___awdiv@quotient:	
  1066                           ; 1 bytes @ 0x6
  1067                           
  1068     0026                     ??_init_clcd:	
  1069                           ; 2 bytes @ 0x6
  1070                           
  1071     0026                     ??_init_config:	
  1072                           ; 1 bytes @ 0x6
  1073                           
  1074                           
  1075                           ; 1 bytes @ 0x6
  1076     0026                     	ds	1
  1077     0027                     ??_power_on:
  1078     0027                     ??_clcd_print:	
  1079                           ; 1 bytes @ 0x7
  1080                           
  1081                           
  1082                           ; 1 bytes @ 0x7
  1083     0027                     	ds	1
  1084     0028                     ?___awmod:
  1085     0028                     ___awmod@divisor:	
  1086                           ; 2 bytes @ 0x8
  1087                           
  1088                           
  1089                           ; 2 bytes @ 0x8
  1090     0028                     	ds	2
  1091     002A                     power_on@i:
  1092     002A                     ___awmod@dividend:	
  1093                           ; 2 bytes @ 0xA
  1094                           
  1095                           
  1096                           ; 2 bytes @ 0xA
  1097     002A                     	ds	2
  1098     002C                     ___awmod@counter:
  1099     002C                     power_on@i_163:	
  1100                           ; 1 bytes @ 0xC
  1101                           
  1102     002C                     ??___awmod:	
  1103                           ; 2 bytes @ 0xC
  1104                           
  1105                           
  1106                           ; 1 bytes @ 0xC
  1107     002C                     	ds	1
  1108     002D                     ___awmod@sign:
  1109                           
  1110                           ; 1 bytes @ 0xD
  1111     002D                     	ds	1
  1112     002E                     ?_convection:
  1113     002E                     ?_display_timer:	
  1114                           ; 1 bytes @ 0xE
  1115                           
  1116     002E                     ?___wmul:	
  1117                           ; 1 bytes @ 0xE
  1118                           
  1119     002E                     convection@reset_flag:	
  1120                           ; 2 bytes @ 0xE
  1121                           
  1122     002E                     display_timer@reset_flag:	
  1123                           ; 1 bytes @ 0xE
  1124                           
  1125     002E                     ___wmul@multiplier:	
  1126                           ; 1 bytes @ 0xE
  1127                           
  1128                           
  1129                           ; 2 bytes @ 0xE
  1130     002E                     	ds	1
  1131     002F                     ??_convection:
  1132     002F                     ??_display_timer:	
  1133                           ; 1 bytes @ 0xF
  1134                           
  1135                           
  1136                           ; 1 bytes @ 0xF
  1137     002F                     	ds	1
  1138     0030                     ___wmul@multiplicand:
  1139                           
  1140                           ; 2 bytes @ 0x10
  1141     0030                     	ds	1
  1142     0031                     convection@key:
  1143                           
  1144                           ; 1 bytes @ 0x11
  1145     0031                     	ds	1
  1146     0032                     display_timer@key:
  1147     0032                     ___wmul@product:	
  1148                           ; 1 bytes @ 0x12
  1149                           
  1150     0032                     ??___wmul:	
  1151                           ; 2 bytes @ 0x12
  1152                           
  1153                           
  1154                           ; 1 bytes @ 0x12
  1155     0032                     	ds	2
  1156     0034                     ?_set_time:
  1157     0034                     set_time@reset_flag:	
  1158                           ; 1 bytes @ 0x14
  1159                           
  1160                           
  1161                           ; 1 bytes @ 0x14
  1162     0034                     	ds	1
  1163     0035                     set_time@key:
  1164     0035                     ??_set_time:	
  1165                           ; 1 bytes @ 0x15
  1166                           
  1167                           
  1168                           ; 1 bytes @ 0x15
  1169     0035                     	ds	1
  1170     0036                     main@operation_mode:
  1171     0036                     ??_main:	
  1172                           ; 1 bytes @ 0x16
  1173                           
  1174                           
  1175                           ; 1 bytes @ 0x16
  1176     0036                     	ds	1
  1177     0037                     main@reset_flag:
  1178                           
  1179                           ; 1 bytes @ 0x17
  1180     0037                     	ds	1
  1181     0038                     main@key:
  1182                           
  1183                           ; 1 bytes @ 0x18
  1184     0038                     	ds	1
  1185                           
  1186                           	psect	maintext
  1187     05FF                     __pmaintext:	
  1188 ;;
  1189 ;;Main: autosize = 0, tempsize = 0, incstack = 0, save=0
  1190 ;;
  1191 ;; *************** function _main *****************
  1192 ;; Defined at:
  1193 ;;		line 36 in file "main.c"
  1194 ;; Parameters:    Size  Location     Type
  1195 ;;		None
  1196 ;; Auto vars:     Size  Location     Type
  1197 ;;  key             1   24[BANK0 ] unsigned char 
  1198 ;;  reset_flag      1   23[BANK0 ] unsigned char 
  1199 ;;  operation_mo    1   22[BANK0 ] unsigned char 
  1200 ;; Return value:  Size  Location     Type
  1201 ;;                  1    wreg      void 
  1202 ;; Registers used:
  1203 ;;		wreg, fsr0l, fsr0h, status,2, status,0, pclath, btemp1, cstack
  1204 ;; Tracked objects:
  1205 ;;		On entry : B00/0
  1206 ;;		On exit  : 0/0
  1207 ;;		Unchanged: 0/0
  1208 ;; Data sizes:     COMMON   BANK0   BANK1   BANK3   BANK2
  1209 ;;      Params:         0       0       0       0       0
  1210 ;;      Locals:         0       3       0       0       0
  1211 ;;      Temps:          0       0       0       0       0
  1212 ;;      Totals:         0       3       0       0       0
  1213 ;;Total ram usage:        3 bytes
  1214 ;; Hardware stack levels required when called: 6
  1215 ;; This function calls:
  1216 ;;		_clcd_print
  1217 ;;		_clear_screen
  1218 ;;		_convection
  1219 ;;		_display_timer
  1220 ;;		_init_config
  1221 ;;		_power_on
  1222 ;;		_read_matrix_keypad
  1223 ;;		_set_time
  1224 ;; This function is called by:
  1225 ;;		Startup code after reset
  1226 ;; This function uses a non-reentrant model
  1227 ;;
  1228                           
  1229     05FF                     _main:	
  1230                           ;psect for function _main
  1231                           
  1232     05FF                     l2443:	
  1233                           ;incstack = 0
  1234                           ; Regs used in _main: [wreg-fsr0h+status,2+status,0+pclath+btemp1+cstack]
  1235                           
  1236                           
  1237                           ;main.c: 38:             case 0x01:
  1238     05FF  120A  158A  2614  120A  118A  	fcall	_init_config
  1239     0604                     l2445:
  1240                           
  1241                           ;main.c: 40:                 clcd_print("2.Grill", (0xC0 + 0));;main.c: 41:             
      +                              clcd_print("3.Convection", (0x90 + 0));
  1242     0604  3001               	movlw	1
  1243     0605  1283               	bcf	3,5	;RP0=0, select bank0
  1244     0606  1303               	bcf	3,6	;RP1=0, select bank0
  1245     0607  00B6               	movwf	main@operation_mode
  1246     0608                     l2447:
  1247                           
  1248                           ;main.c: 42:                 clcd_print("4.Start", (0xD0 + 0));
  1249     0608  3010               	movlw	16
  1250     0609  00B7               	movwf	main@reset_flag
  1251     060A                     l2449:
  1252                           
  1253                           ;main.c: 44:                 if (key == 1 || key == 2)
  1254     060A  120A  158A  278E  120A  118A  	fcall	_power_on
  1255     060F                     l2451:
  1256                           
  1257                           ;main.c: 45:                 {
  1258     060F  120A  158A  25C8  120A  118A  	fcall	_clear_screen
  1259     0614                     l2453:
  1260                           
  1261                           ;main.c: 48:                 };main.c: 49:                 else if (key == 3)
  1262     0614  3001               	movlw	1
  1263     0615  120A  158A  2632  120A  118A  	fcall	_read_matrix_keypad
  1264     061A  1283               	bcf	3,5	;RP0=0, select bank0
  1265     061B  1303               	bcf	3,6	;RP1=0, select bank0
  1266     061C  00B8               	movwf	main@key
  1267                           
  1268                           ;main.c: 51:                     operation_mode = 0x04;
  1269     061D  2EB9               	goto	l2491
  1270     061E                     l2455:
  1271                           
  1272                           ;main.c: 54:                 else if (key == 4)
  1273     061E  30D9               	movlw	(low ((STR_1-__stringbase)| (0+32768)))& (0+255)
  1274     061F  00A4               	movwf	clcd_print@str
  1275     0620  3080               	movlw	128
  1276     0621  00A5               	movwf	clcd_print@str+1
  1277     0622  3080               	movlw	128
  1278     0623  00A6               	movwf	clcd_print@addr
  1279     0624  120A  158A  2680  120A  118A  	fcall	_clcd_print
  1280                           
  1281                           ;main.c: 55:                 {
  1282     0629  30D1               	movlw	(low ((STR_2-__stringbase)| (0+32768)))& (0+255)
  1283     062A  1283               	bcf	3,5	;RP0=0, select bank0
  1284     062B  1303               	bcf	3,6	;RP1=0, select bank0
  1285     062C  00A4               	movwf	clcd_print@str
  1286     062D  3080               	movlw	128
  1287     062E  00A5               	movwf	clcd_print@str+1
  1288     062F  30C0               	movlw	192
  1289     0630  00A6               	movwf	clcd_print@addr
  1290     0631  120A  158A  2680  120A  118A  	fcall	_clcd_print
  1291                           
  1292                           ;main.c: 56:                     min = 0;
  1293     0636  3092               	movlw	(low ((STR_3-__stringbase)| (0+32768)))& (0+255)
  1294     0637  1283               	bcf	3,5	;RP0=0, select bank0
  1295     0638  1303               	bcf	3,6	;RP1=0, select bank0
  1296     0639  00A4               	movwf	clcd_print@str
  1297     063A  3080               	movlw	128
  1298     063B  00A5               	movwf	clcd_print@str+1
  1299     063C  3090               	movlw	144
  1300     063D  00A6               	movwf	clcd_print@addr
  1301     063E  120A  158A  2680  120A  118A  	fcall	_clcd_print
  1302                           
  1303                           ;main.c: 57:                     sec = 30;
  1304     0643  30E1               	movlw	(low ((STR_4-__stringbase)| (0+32768)))& (0+255)
  1305     0644  1283               	bcf	3,5	;RP0=0, select bank0
  1306     0645  1303               	bcf	3,6	;RP1=0, select bank0
  1307     0646  00A4               	movwf	clcd_print@str
  1308     0647  3080               	movlw	128
  1309     0648  00A5               	movwf	clcd_print@str+1
  1310     0649  30D0               	movlw	208
  1311     064A  00A6               	movwf	clcd_print@addr
  1312     064B  120A  158A  2680  120A  118A  	fcall	_clcd_print
  1313     0650                     l2457:
  1314                           
  1315                           ;main.c: 59:                     reset_flag = 0x12;
  1316     0650  1283               	bcf	3,5	;RP0=0, select bank0
  1317     0651  1303               	bcf	3,6	;RP1=0, select bank0
  1318     0652  0338               	decf	main@key,w
  1319     0653  1903               	btfsc	3,2
  1320     0654  2E56               	goto	u2361
  1321     0655  2E57               	goto	u2360
  1322     0656                     u2361:
  1323     0656  2E5D               	goto	l110
  1324     0657                     u2360:
  1325     0657                     l2459:
  1326     0657  3002               	movlw	2
  1327     0658  0638               	xorwf	main@key,w
  1328     0659  1D03               	btfss	3,2
  1329     065A  2E5C               	goto	u2371
  1330     065B  2E5D               	goto	u2370
  1331     065C                     u2371:
  1332     065C  2E64               	goto	l2461
  1333     065D                     u2370:
  1334     065D                     l110:
  1335                           
  1336                           ;main.c: 60:                 };main.c: 61:                 break;
  1337     065D  3002               	movlw	2
  1338     065E  1283               	bcf	3,5	;RP0=0, select bank0
  1339     065F  1303               	bcf	3,6	;RP1=0, select bank0
  1340     0660  00B6               	movwf	main@operation_mode
  1341                           
  1342                           ;main.c: 62: 
  1343     0661  3013               	movlw	19
  1344     0662  00B7               	movwf	main@reset_flag
  1345                           
  1346                           ;main.c: 63:             case 0x02:
  1347     0663  2E14               	goto	l2453
  1348     0664                     l2461:
  1349     0664  3003               	movlw	3
  1350     0665  0638               	xorwf	main@key,w
  1351     0666  1D03               	btfss	3,2
  1352     0667  2E69               	goto	u2381
  1353     0668  2E6A               	goto	u2380
  1354     0669                     u2381:
  1355     0669  2E6F               	goto	l2465
  1356     066A                     u2380:
  1357     066A                     l2463:
  1358                           
  1359                           ;main.c: 65:                 {;main.c: 66:                     operation_mode = 0x03;
  1360     066A  3004               	movlw	4
  1361     066B  00B6               	movwf	main@operation_mode
  1362                           
  1363                           ;main.c: 67:                     reset_flag = 0x12;
  1364     066C  3011               	movlw	17
  1365     066D  00B7               	movwf	main@reset_flag
  1366                           
  1367                           ;main.c: 68:                 }
  1368     066E  2E14               	goto	l2453
  1369     066F                     l2465:
  1370     066F  3004               	movlw	4
  1371     0670  0638               	xorwf	main@key,w
  1372     0671  1D03               	btfss	3,2
  1373     0672  2E74               	goto	u2391
  1374     0673  2E75               	goto	u2390
  1375     0674                     u2391:
  1376     0674  2E14               	goto	l2453
  1377     0675                     u2390:
  1378     0675                     l2467:
  1379                           
  1380                           ;main.c: 70:                 {;main.c: 71:                     reset_flag = 0x10;
  1381     0675  01B9               	clrf	_min
  1382     0676  01BA               	clrf	_min+1
  1383     0677                     l2469:
  1384                           
  1385                           ;main.c: 72:                 }
  1386     0677  301E               	movlw	30
  1387     0678  00BB               	movwf	_sec
  1388     0679  3000               	movlw	0
  1389     067A  00BC               	movwf	_sec+1
  1390     067B                     l2471:
  1391                           
  1392                           ;main.c: 73:                 break;
  1393     067B  3003               	movlw	3
  1394     067C  00B6               	movwf	main@operation_mode
  1395     067D                     l2473:
  1396                           
  1397                           ;main.c: 74: 
  1398     067D  3012               	movlw	18
  1399     067E  00B7               	movwf	main@reset_flag
  1400     067F  2E14               	goto	l2453
  1401     0680                     l2475:
  1402                           
  1403                           ;main.c: 79:                     reset_flag = 0x13;
  1404     0680  0837               	movf	main@reset_flag,w
  1405     0681  00B4               	movwf	set_time@reset_flag
  1406     0682  0838               	movf	main@key,w
  1407     0683  120A  118A  202C  120A  118A  	fcall	_set_time
  1408     0688  3A03               	xorlw	3
  1409     0689  1D03               	skipz
  1410     068A  2E8C               	goto	u2401
  1411     068B  2E8D               	goto	u2400
  1412     068C                     u2401:
  1413     068C  2E94               	goto	l117
  1414     068D                     u2400:
  1415     068D                     l2477:
  1416                           
  1417                           ;main.c: 80:                 };main.c: 81:                 else
  1418     068D  3003               	movlw	3
  1419     068E  1283               	bcf	3,5	;RP0=0, select bank0
  1420     068F  1303               	bcf	3,6	;RP1=0, select bank0
  1421     0690  00B6               	movwf	main@operation_mode
  1422                           
  1423                           ;main.c: 82:                 {
  1424     0691  3012               	movlw	18
  1425     0692  00B7               	movwf	main@reset_flag
  1426                           
  1427                           ;main.c: 83:                     reset_flag = 0x10;
  1428     0693  2E14               	goto	l2453
  1429     0694                     l117:	
  1430                           ;main.c: 84:                 }
  1431                           
  1432                           
  1433                           ;main.c: 85:                 break;;main.c: 86: 
  1434     0694  3010               	movlw	16
  1435     0695  1283               	bcf	3,5	;RP0=0, select bank0
  1436     0696  1303               	bcf	3,6	;RP1=0, select bank0
  1437     0697  00B7               	movwf	main@reset_flag
  1438     0698  2E14               	goto	l2453
  1439     0699                     l2479:
  1440                           
  1441                           ;main.c: 91:                     clear_screen();
  1442     0699  0837               	movf	main@reset_flag,w
  1443     069A  00AE               	movwf	convection@reset_flag
  1444     069B  0838               	movf	main@key,w
  1445     069C  120A  118A  219C  120A  118A  	fcall	_convection
  1446     06A1  3A02               	xorlw	2
  1447     06A2  1D03               	skipz
  1448     06A3  2EA5               	goto	u2411
  1449     06A4  2EA6               	goto	u2410
  1450     06A5                     u2411:
  1451     06A5  2E94               	goto	l117
  1452     06A6                     u2410:
  1453     06A6  2E5D               	goto	l110
  1454     06A7                     l2483:
  1455     06A7  0837               	movf	main@reset_flag,w
  1456     06A8  00AE               	movwf	display_timer@reset_flag
  1457     06A9  0838               	movf	main@key,w
  1458     06AA  120A  118A  22F1  120A  118A  	fcall	_display_timer
  1459     06AF  3A01               	xorlw	1
  1460     06B0  1D03               	skipz
  1461     06B1  2EB3               	goto	u2421
  1462     06B2  2EB4               	goto	u2420
  1463     06B3                     u2421:
  1464     06B3  2E94               	goto	l117
  1465     06B4                     u2420:
  1466     06B4                     l2485:
  1467     06B4  3001               	movlw	1
  1468     06B5  1283               	bcf	3,5	;RP0=0, select bank0
  1469     06B6  1303               	bcf	3,6	;RP1=0, select bank0
  1470     06B7  00B6               	movwf	main@operation_mode
  1471     06B8  2E0F               	goto	l2451
  1472     06B9                     l2491:
  1473     06B9  0836               	movf	main@operation_mode,w
  1474                           
  1475                           ; Switch size 1, requested type "simple"
  1476                           ; Number of cases is 4, Range of values is 1 to 4
  1477                           ; switch strategies available:
  1478                           ; Name         Instructions Cycles
  1479                           ; simple_byte           13     7 (average)
  1480                           ; direct_byte           23    11 (fixed)
  1481                           ; jumptable            263     9 (fixed)
  1482                           ;	Chosen strategy is simple_byte
  1483     06BA  3A01               	xorlw	1	; case 1
  1484     06BB  1903               	skipnz
  1485     06BC  2E1E               	goto	l2455
  1486     06BD  3A03               	xorlw	3	; case 2
  1487     06BE  1903               	skipnz
  1488     06BF  2E80               	goto	l2475
  1489     06C0  3A01               	xorlw	1	; case 3
  1490     06C1  1903               	skipnz
  1491     06C2  2EA7               	goto	l2483
  1492     06C3  3A07               	xorlw	7	; case 4
  1493     06C4  1903               	skipnz
  1494     06C5  2E99               	goto	l2479
  1495     06C6  2E14               	goto	l2453
  1496     06C7  120A  118A  280E   	ljmp	start
  1497     06CA                     __end_of_main:
  1498                           
  1499                           	psect	text1
  1500     002C                     __ptext1:	
  1501 ;; *************** function _set_time *****************
  1502 ;; Defined at:
  1503 ;;		line 32 in file "micro_oven.c"
  1504 ;; Parameters:    Size  Location     Type
  1505 ;;  key             1    wreg     unsigned char 
  1506 ;;  reset_flag      1   20[BANK0 ] unsigned char 
  1507 ;; Auto vars:     Size  Location     Type
  1508 ;;  key             1   21[BANK0 ] unsigned char 
  1509 ;; Return value:  Size  Location     Type
  1510 ;;                  1    wreg      unsigned char 
  1511 ;; Registers used:
  1512 ;;		wreg, fsr0l, fsr0h, status,2, status,0, pclath, btemp1, cstack
  1513 ;; Tracked objects:
  1514 ;;		On entry : 0/0
  1515 ;;		On exit  : 0/0
  1516 ;;		Unchanged: 0/0
  1517 ;; Data sizes:     COMMON   BANK0   BANK1   BANK3   BANK2
  1518 ;;      Params:         0       1       0       0       0
  1519 ;;      Locals:         0       1       0       0       0
  1520 ;;      Temps:          0       0       0       0       0
  1521 ;;      Totals:         0       2       0       0       0
  1522 ;;Total ram usage:        2 bytes
  1523 ;; Hardware stack levels used: 1
  1524 ;; Hardware stack levels required when called: 3
  1525 ;; This function calls:
  1526 ;;		___awdiv
  1527 ;;		___awmod
  1528 ;;		___wmul
  1529 ;;		_clcd_print
  1530 ;;		_clear_screen
  1531 ;; This function is called by:
  1532 ;;		_main
  1533 ;; This function uses a non-reentrant model
  1534 ;;
  1535                           
  1536     002C                     _set_time:	
  1537                           ;psect for function _set_time
  1538                           
  1539                           
  1540                           ;incstack = 0
  1541                           ; Regs used in _set_time: [wreg-fsr0h+status,2+status,0+pclath+btemp1+cstack]
  1542                           ;set_time@key stored from wreg
  1543     002C  1283               	bcf	3,5	;RP0=0, select bank0
  1544     002D  1303               	bcf	3,6	;RP1=0, select bank0
  1545     002E  00B5               	movwf	set_time@key
  1546     002F                     l2365:
  1547                           
  1548                           ;micro_oven.c: 32: unsigned char set_time(unsigned char key, unsigned char reset_flag);m
      +                          icro_oven.c: 33: {;micro_oven.c: 34:     if (reset_flag == 0x13)
  1549     002F  3013               	movlw	19
  1550     0030  0634               	xorwf	set_time@reset_flag,w
  1551     0031  1D03               	btfss	3,2
  1552     0032  2834               	goto	u2231
  1553     0033  2835               	goto	u2230
  1554     0034                     u2231:
  1555     0034  2869               	goto	l2383
  1556     0035                     u2230:
  1557     0035                     l2367:
  1558                           
  1559                           ;micro_oven.c: 35:     {;micro_oven.c: 36:         clear_screen();
  1560     0035  120A  158A  25C8  120A  118A  	fcall	_clear_screen
  1561     003A                     l2369:
  1562                           
  1563                           ;micro_oven.c: 37:         clcd_print("SET TIME <MM:SS>", (0x80 + 0));
  1564     003A  3034               	movlw	(low ((STR_7-__stringbase)| (0+32768)))& (0+255)
  1565     003B  1283               	bcf	3,5	;RP0=0, select bank0
  1566     003C  1303               	bcf	3,6	;RP1=0, select bank0
  1567     003D  00A4               	movwf	clcd_print@str
  1568     003E  3080               	movlw	128
  1569     003F  00A5               	movwf	clcd_print@str+1
  1570     0040  3080               	movlw	128
  1571     0041  00A6               	movwf	clcd_print@addr
  1572     0042  120A  158A  2680  120A  118A  	fcall	_clcd_print
  1573     0047                     l2371:
  1574                           
  1575                           ;micro_oven.c: 38:         clcd_print("TIME: 00:00", (0xC0 + 0));
  1576     0047  309F               	movlw	(low ((STR_8-__stringbase)| (0+32768)))& (0+255)
  1577     0048  1283               	bcf	3,5	;RP0=0, select bank0
  1578     0049  1303               	bcf	3,6	;RP1=0, select bank0
  1579     004A  00A4               	movwf	clcd_print@str
  1580     004B  3080               	movlw	128
  1581     004C  00A5               	movwf	clcd_print@str+1
  1582     004D  30C0               	movlw	192
  1583     004E  00A6               	movwf	clcd_print@addr
  1584     004F  120A  158A  2680  120A  118A  	fcall	_clcd_print
  1585     0054                     l2373:
  1586                           
  1587                           ;micro_oven.c: 39:         clcd_print("*:CLEAR  #:ENTER", (0xD0 + 0));
  1588     0054  3045               	movlw	(low ((STR_9-__stringbase)| (0+32768)))& (0+255)
  1589     0055  1283               	bcf	3,5	;RP0=0, select bank0
  1590     0056  1303               	bcf	3,6	;RP1=0, select bank0
  1591     0057  00A4               	movwf	clcd_print@str
  1592     0058  3080               	movlw	128
  1593     0059  00A5               	movwf	clcd_print@str+1
  1594     005A  30D0               	movlw	208
  1595     005B  00A6               	movwf	clcd_print@addr
  1596     005C  120A  158A  2680  120A  118A  	fcall	_clcd_print
  1597     0061                     l2375:
  1598                           
  1599                           ;micro_oven.c: 41:         sec = 0;
  1600     0061  1283               	bcf	3,5	;RP0=0, select bank0
  1601     0062  1303               	bcf	3,6	;RP1=0, select bank0
  1602     0063  01BB               	clrf	_sec
  1603     0064  01BC               	clrf	_sec+1
  1604     0065                     l2377:
  1605                           
  1606                           ;micro_oven.c: 42:         min = 0;
  1607     0065  01B9               	clrf	_min
  1608     0066  01BA               	clrf	_min+1
  1609     0067                     l2379:
  1610                           
  1611                           ;micro_oven.c: 43:         key_count = 0;
  1612     0067  01C0               	clrf	_key_count
  1613     0068                     l2381:
  1614                           
  1615                           ;micro_oven.c: 44:         TMR2ON = 1;
  1616     0068  1512               	bsf	18,2	;volatile
  1617     0069                     l2383:
  1618                           
  1619                           ;micro_oven.c: 47:     if (key != 0xFF && key != '*' && key != '#')
  1620     0069  0A35               	incf	set_time@key,w
  1621     006A  1903               	btfsc	3,2
  1622     006B  286D               	goto	u2241
  1623     006C  286E               	goto	u2240
  1624     006D                     u2241:
  1625     006D  28DF               	goto	l2405
  1626     006E                     u2240:
  1627     006E                     l2385:
  1628     006E  302A               	movlw	42
  1629     006F  0635               	xorwf	set_time@key,w
  1630     0070  1903               	btfsc	3,2
  1631     0071  2873               	goto	u2251
  1632     0072  2874               	goto	u2250
  1633     0073                     u2251:
  1634     0073  28DF               	goto	l2405
  1635     0074                     u2250:
  1636     0074                     l2387:
  1637     0074  3023               	movlw	35
  1638     0075  0635               	xorwf	set_time@key,w
  1639     0076  1903               	btfsc	3,2
  1640     0077  2879               	goto	u2261
  1641     0078  287A               	goto	u2260
  1642     0079                     u2261:
  1643     0079  28DF               	goto	l2405
  1644     007A                     u2260:
  1645     007A                     l2389:
  1646                           
  1647                           ;micro_oven.c: 48:     {;micro_oven.c: 49:         if (key_count < 2)
  1648     007A  3002               	movlw	2
  1649     007B  0240               	subwf	_key_count,w
  1650     007C  1803               	skipnc
  1651     007D  287F               	goto	u2271
  1652     007E  2880               	goto	u2270
  1653     007F                     u2271:
  1654     007F  28A8               	goto	l2395
  1655     0080                     u2270:
  1656     0080                     l2391:
  1657                           
  1658                           ;micro_oven.c: 50:         {;micro_oven.c: 51:             sec = (sec % 10) * 10 + key;
  1659     0080  083C               	movf	_sec+1,w
  1660     0081  00AB               	movwf	___awmod@dividend+1
  1661     0082  083B               	movf	_sec,w
  1662     0083  00AA               	movwf	___awmod@dividend
  1663     0084  300A               	movlw	10
  1664     0085  00A8               	movwf	___awmod@divisor
  1665     0086  3000               	movlw	0
  1666     0087  00A9               	movwf	___awmod@divisor+1
  1667     0088  120A  118A  249F  120A  118A  	fcall	___awmod
  1668     008D  1283               	bcf	3,5	;RP0=0, select bank0
  1669     008E  1303               	bcf	3,6	;RP1=0, select bank0
  1670     008F  0829               	movf	?___awmod+1,w
  1671     0090  00AF               	movwf	___wmul@multiplier+1
  1672     0091  0828               	movf	?___awmod,w
  1673     0092  00AE               	movwf	___wmul@multiplier
  1674     0093  300A               	movlw	10
  1675     0094  00B0               	movwf	___wmul@multiplicand
  1676     0095  3000               	movlw	0
  1677     0096  00B1               	movwf	___wmul@multiplicand+1
  1678     0097  120A  158A  2659  120A  118A  	fcall	___wmul
  1679     009C  1283               	bcf	3,5	;RP0=0, select bank0
  1680     009D  1303               	bcf	3,6	;RP1=0, select bank0
  1681     009E  0835               	movf	set_time@key,w
  1682     009F  072E               	addwf	?___wmul,w
  1683     00A0  00BB               	movwf	_sec
  1684     00A1  3000               	movlw	0
  1685     00A2  1803               	skipnc
  1686     00A3  3001               	movlw	1
  1687     00A4  072F               	addwf	?___wmul+1,w
  1688     00A5  00BC               	movwf	_sec+1
  1689     00A6                     l2393:
  1690                           
  1691                           ;micro_oven.c: 52:             blink_pos = 0;
  1692     00A6  01BF               	clrf	_blink_pos
  1693                           
  1694                           ;micro_oven.c: 53:         }
  1695     00A7  28DC               	goto	l2403
  1696     00A8                     l2395:
  1697     00A8  3002               	movlw	2
  1698     00A9  0240               	subwf	_key_count,w
  1699     00AA  1C03               	skipc
  1700     00AB  28AD               	goto	u2281
  1701     00AC  28AE               	goto	u2280
  1702     00AD                     u2281:
  1703     00AD  28DC               	goto	l2403
  1704     00AE                     u2280:
  1705     00AE                     l2397:
  1706     00AE  3004               	movlw	4
  1707     00AF  0240               	subwf	_key_count,w
  1708     00B0  1803               	skipnc
  1709     00B1  28B3               	goto	u2291
  1710     00B2  28B4               	goto	u2290
  1711     00B3                     u2291:
  1712     00B3  28DC               	goto	l2403
  1713     00B4                     u2290:
  1714     00B4                     l2399:
  1715                           
  1716                           ;micro_oven.c: 55:         {;micro_oven.c: 56:             min = (min % 10) * 10 + key;
  1717     00B4  083A               	movf	_min+1,w
  1718     00B5  00AB               	movwf	___awmod@dividend+1
  1719     00B6  0839               	movf	_min,w
  1720     00B7  00AA               	movwf	___awmod@dividend
  1721     00B8  300A               	movlw	10
  1722     00B9  00A8               	movwf	___awmod@divisor
  1723     00BA  3000               	movlw	0
  1724     00BB  00A9               	movwf	___awmod@divisor+1
  1725     00BC  120A  118A  249F  120A  118A  	fcall	___awmod
  1726     00C1  1283               	bcf	3,5	;RP0=0, select bank0
  1727     00C2  1303               	bcf	3,6	;RP1=0, select bank0
  1728     00C3  0829               	movf	?___awmod+1,w
  1729     00C4  00AF               	movwf	___wmul@multiplier+1
  1730     00C5  0828               	movf	?___awmod,w
  1731     00C6  00AE               	movwf	___wmul@multiplier
  1732     00C7  300A               	movlw	10
  1733     00C8  00B0               	movwf	___wmul@multiplicand
  1734     00C9  3000               	movlw	0
  1735     00CA  00B1               	movwf	___wmul@multiplicand+1
  1736     00CB  120A  158A  2659  120A  118A  	fcall	___wmul
  1737     00D0  1283               	bcf	3,5	;RP0=0, select bank0
  1738     00D1  1303               	bcf	3,6	;RP1=0, select bank0
  1739     00D2  0835               	movf	set_time@key,w
  1740     00D3  072E               	addwf	?___wmul,w
  1741     00D4  00B9               	movwf	_min
  1742     00D5  3000               	movlw	0
  1743     00D6  1803               	skipnc
  1744     00D7  3001               	movlw	1
  1745     00D8  072F               	addwf	?___wmul+1,w
  1746     00D9  00BA               	movwf	_min+1
  1747     00DA                     l2401:
  1748                           
  1749                           ;micro_oven.c: 57:             blink_pos = 1;
  1750     00DA  3001               	movlw	1
  1751     00DB  00BF               	movwf	_blink_pos
  1752     00DC                     l2403:
  1753                           
  1754                           ;micro_oven.c: 59:         key_count++;
  1755     00DC  3001               	movlw	1
  1756     00DD  07C0               	addwf	_key_count,f
  1757                           
  1758                           ;micro_oven.c: 60:     }
  1759     00DE  28F5               	goto	l2417
  1760     00DF                     l2405:
  1761     00DF  302A               	movlw	42
  1762     00E0  0635               	xorwf	set_time@key,w
  1763     00E1  1D03               	btfss	3,2
  1764     00E2  28E4               	goto	u2301
  1765     00E3  28E5               	goto	u2300
  1766     00E4                     u2301:
  1767     00E4  28EC               	goto	l2409
  1768     00E5                     u2300:
  1769     00E5                     l2407:
  1770                           
  1771                           ;micro_oven.c: 62:     {;micro_oven.c: 63:         blink_pos = 0;
  1772     00E5  01BF               	clrf	_blink_pos
  1773                           
  1774                           ;micro_oven.c: 64:         key_count = 0;
  1775     00E6  01C0               	clrf	_key_count
  1776                           
  1777                           ;micro_oven.c: 65:         sec = 0;
  1778     00E7  01BB               	clrf	_sec
  1779     00E8  01BC               	clrf	_sec+1
  1780                           
  1781                           ;micro_oven.c: 66:         min = 0;
  1782     00E9  01B9               	clrf	_min
  1783     00EA  01BA               	clrf	_min+1
  1784                           
  1785                           ;micro_oven.c: 67:     }
  1786     00EB  28F5               	goto	l2417
  1787     00EC                     l2409:
  1788     00EC  3023               	movlw	35
  1789     00ED  0635               	xorwf	set_time@key,w
  1790     00EE  1D03               	btfss	3,2
  1791     00EF  28F1               	goto	u2311
  1792     00F0  28F2               	goto	u2310
  1793     00F1                     u2311:
  1794     00F1  28F5               	goto	l2417
  1795     00F2                     u2310:
  1796     00F2                     l2411:
  1797                           
  1798                           ;micro_oven.c: 69:     {;micro_oven.c: 70:         TMR2ON = 0;
  1799     00F2  1112               	bcf	18,2	;volatile
  1800     00F3                     l2413:
  1801                           
  1802                           ;micro_oven.c: 71:         return 0x03;
  1803     00F3  3003               	movlw	3
  1804     00F4  299B               	goto	l246
  1805     00F5                     l2417:
  1806                           
  1807                           ;micro_oven.c: 74:     Mins[0] = (min / 10) + '0';
  1808     00F5  300A               	movlw	10
  1809     00F6  00A0               	movwf	___awdiv@divisor
  1810     00F7  3000               	movlw	0
  1811     00F8  00A1               	movwf	___awdiv@divisor+1
  1812     00F9  083A               	movf	_min+1,w
  1813     00FA  00A3               	movwf	___awdiv@dividend+1
  1814     00FB  0839               	movf	_min,w
  1815     00FC  00A2               	movwf	___awdiv@dividend
  1816     00FD  120A  158A  2729  120A  118A  	fcall	___awdiv
  1817     0102  1283               	bcf	3,5	;RP0=0, select bank0
  1818     0103  1303               	bcf	3,6	;RP1=0, select bank0
  1819     0104  0820               	movf	?___awdiv,w
  1820     0105  3E30               	addlw	48
  1821     0106  00CA               	movwf	_Mins
  1822                           
  1823                           ;micro_oven.c: 75:     Mins[1] = (min % 10) + '0';
  1824     0107  300A               	movlw	10
  1825     0108  00A8               	movwf	___awmod@divisor
  1826     0109  3000               	movlw	0
  1827     010A  00A9               	movwf	___awmod@divisor+1
  1828     010B  083A               	movf	_min+1,w
  1829     010C  00AB               	movwf	___awmod@dividend+1
  1830     010D  0839               	movf	_min,w
  1831     010E  00AA               	movwf	___awmod@dividend
  1832     010F  120A  118A  249F  120A  118A  	fcall	___awmod
  1833     0114  1283               	bcf	3,5	;RP0=0, select bank0
  1834     0115  1303               	bcf	3,6	;RP1=0, select bank0
  1835     0116  0828               	movf	?___awmod,w
  1836     0117  3E30               	addlw	48
  1837     0118  00CB               	movwf	_Mins+1
  1838                           
  1839                           ;micro_oven.c: 76:     Secs[0] = (sec / 10) + '0';
  1840     0119  300A               	movlw	10
  1841     011A  00A0               	movwf	___awdiv@divisor
  1842     011B  3000               	movlw	0
  1843     011C  00A1               	movwf	___awdiv@divisor+1
  1844     011D  083C               	movf	_sec+1,w
  1845     011E  00A3               	movwf	___awdiv@dividend+1
  1846     011F  083B               	movf	_sec,w
  1847     0120  00A2               	movwf	___awdiv@dividend
  1848     0121  120A  158A  2729  120A  118A  	fcall	___awdiv
  1849     0126  1283               	bcf	3,5	;RP0=0, select bank0
  1850     0127  1303               	bcf	3,6	;RP1=0, select bank0
  1851     0128  0820               	movf	?___awdiv,w
  1852     0129  3E30               	addlw	48
  1853     012A  00C7               	movwf	_Secs
  1854                           
  1855                           ;micro_oven.c: 77:     Secs[1] = (sec % 10) + '0';
  1856     012B  300A               	movlw	10
  1857     012C  00A8               	movwf	___awmod@divisor
  1858     012D  3000               	movlw	0
  1859     012E  00A9               	movwf	___awmod@divisor+1
  1860     012F  083C               	movf	_sec+1,w
  1861     0130  00AB               	movwf	___awmod@dividend+1
  1862     0131  083B               	movf	_sec,w
  1863     0132  00AA               	movwf	___awmod@dividend
  1864     0133  120A  118A  249F  120A  118A  	fcall	___awmod
  1865     0138  1283               	bcf	3,5	;RP0=0, select bank0
  1866     0139  1303               	bcf	3,6	;RP1=0, select bank0
  1867     013A  0828               	movf	?___awmod,w
  1868     013B  3E30               	addlw	48
  1869     013C  00C8               	movwf	_Secs+1
  1870     013D                     l2419:
  1871                           
  1872                           ;micro_oven.c: 79:     if(blink_pos == 0)
  1873     013D  083F               	movf	_blink_pos,w
  1874     013E  1D03               	btfss	3,2
  1875     013F  2941               	goto	u2321
  1876     0140  2942               	goto	u2320
  1877     0141                     u2321:
  1878     0141  296C               	goto	l2429
  1879     0142                     u2320:
  1880     0142                     l2421:
  1881                           
  1882                           ;micro_oven.c: 80:     {;micro_oven.c: 81:         clcd_print(Mins, (0xC0 + 6));
  1883     0142  304A               	movlw	(low (_Mins| 0))& (0+255)
  1884     0143  00A4               	movwf	clcd_print@str
  1885     0144  3000               	movlw	0
  1886     0145  00A5               	movwf	clcd_print@str+1
  1887     0146  30C6               	movlw	198
  1888     0147  00A6               	movwf	clcd_print@addr
  1889     0148  120A  158A  2680  120A  118A  	fcall	_clcd_print
  1890     014D                     l2423:
  1891                           
  1892                           ;micro_oven.c: 82:         if(blink == 1)
  1893     014D  1283               	bcf	3,5	;RP0=0, select bank0
  1894     014E  1303               	bcf	3,6	;RP1=0, select bank0
  1895     014F  0342               	decf	_blink,w
  1896     0150  1D03               	btfss	3,2
  1897     0151  2953               	goto	u2331
  1898     0152  2954               	goto	u2330
  1899     0153                     u2331:
  1900     0153  2960               	goto	l2427
  1901     0154                     u2330:
  1902     0154                     l2425:
  1903                           
  1904                           ;micro_oven.c: 83:         {;micro_oven.c: 84:             clcd_print("  ",(0xC0 + 9));
  1905     0154  300F               	movlw	(low (((STR_5+14)-__stringbase)| (0+32768)))& (0+255)
  1906     0155  00A4               	movwf	clcd_print@str
  1907     0156  3080               	movlw	128
  1908     0157  00A5               	movwf	clcd_print@str+1
  1909     0158  30C9               	movlw	201
  1910     0159  00A6               	movwf	clcd_print@addr
  1911     015A  120A  158A  2680  120A  118A  	fcall	_clcd_print
  1912                           
  1913                           ;micro_oven.c: 85:         }
  1914     015F  299A               	goto	l2439
  1915     0160                     l2427:
  1916                           
  1917                           ;micro_oven.c: 87:         {;micro_oven.c: 88:             clcd_print(Secs, (0xC0 + 9));
  1918     0160  3047               	movlw	(low (_Secs| 0))& (0+255)
  1919     0161  00A4               	movwf	clcd_print@str
  1920     0162  3000               	movlw	0
  1921     0163  00A5               	movwf	clcd_print@str+1
  1922     0164  30C9               	movlw	201
  1923     0165  00A6               	movwf	clcd_print@addr
  1924     0166  120A  158A  2680  120A  118A  	fcall	_clcd_print
  1925     016B  299A               	goto	l2439
  1926     016C                     l2429:
  1927     016C  033F               	decf	_blink_pos,w
  1928     016D  1D03               	btfss	3,2
  1929     016E  2970               	goto	u2341
  1930     016F  2971               	goto	u2340
  1931     0170                     u2341:
  1932     0170  299A               	goto	l2439
  1933     0171                     u2340:
  1934     0171                     l2431:
  1935                           
  1936                           ;micro_oven.c: 93:     {;micro_oven.c: 94:         clcd_print(Secs, (0xC0 + 9));
  1937     0171  3047               	movlw	(low (_Secs| 0))& (0+255)
  1938     0172  00A4               	movwf	clcd_print@str
  1939     0173  3000               	movlw	0
  1940     0174  00A5               	movwf	clcd_print@str+1
  1941     0175  30C9               	movlw	201
  1942     0176  00A6               	movwf	clcd_print@addr
  1943     0177  120A  158A  2680  120A  118A  	fcall	_clcd_print
  1944     017C                     l2433:
  1945                           
  1946                           ;micro_oven.c: 96:         if(blink == 1)
  1947     017C  1283               	bcf	3,5	;RP0=0, select bank0
  1948     017D  1303               	bcf	3,6	;RP1=0, select bank0
  1949     017E  0342               	decf	_blink,w
  1950     017F  1D03               	btfss	3,2
  1951     0180  2982               	goto	u2351
  1952     0181  2983               	goto	u2350
  1953     0182                     u2351:
  1954     0182  298F               	goto	l2437
  1955     0183                     u2350:
  1956     0183                     l2435:
  1957                           
  1958                           ;micro_oven.c: 97:         {;micro_oven.c: 98:             clcd_print("  ", (0xC0 + 6));
  1959     0183  300F               	movlw	(low (((STR_5+14)-__stringbase)| (0+32768)))& (0+255)
  1960     0184  00A4               	movwf	clcd_print@str
  1961     0185  3080               	movlw	128
  1962     0186  00A5               	movwf	clcd_print@str+1
  1963     0187  30C6               	movlw	198
  1964     0188  00A6               	movwf	clcd_print@addr
  1965     0189  120A  158A  2680  120A  118A  	fcall	_clcd_print
  1966                           
  1967                           ;micro_oven.c: 99:         }
  1968     018E  299A               	goto	l2439
  1969     018F                     l2437:
  1970                           
  1971                           ;micro_oven.c: 101:         {;micro_oven.c: 102:             clcd_print(Mins, (0xC0 + 6)
      +                          );
  1972     018F  304A               	movlw	(low (_Mins| 0))& (0+255)
  1973     0190  00A4               	movwf	clcd_print@str
  1974     0191  3000               	movlw	0
  1975     0192  00A5               	movwf	clcd_print@str+1
  1976     0193  30C6               	movlw	198
  1977     0194  00A6               	movwf	clcd_print@addr
  1978     0195  120A  158A  2680  120A  118A  	fcall	_clcd_print
  1979     019A                     l2439:
  1980                           
  1981                           ;micro_oven.c: 106:     return 0x14;
  1982     019A  3014               	movlw	20
  1983     019B                     l246:
  1984     019B  0008               	return
  1985     019C                     __end_of_set_time:
  1986                           
  1987                           	psect	text2
  1988     0E59                     __ptext2:	
  1989 ;; *************** function ___wmul *****************
  1990 ;; Defined at:
  1991 ;;		line 15 in file "C:\Program Files\Microchip\xc8\v3.10\pic\sources\c99\common\Umul16.c"
  1992 ;; Parameters:    Size  Location     Type
  1993 ;;  multiplier      2   14[BANK0 ] unsigned int 
  1994 ;;  multiplicand    2   16[BANK0 ] unsigned int 
  1995 ;; Auto vars:     Size  Location     Type
  1996 ;;  product         2   18[BANK0 ] unsigned int 
  1997 ;; Return value:  Size  Location     Type
  1998 ;;                  2   14[BANK0 ] unsigned int 
  1999 ;; Registers used:
  2000 ;;		wreg, status,2, status,0
  2001 ;; Tracked objects:
  2002 ;;		On entry : 0/0
  2003 ;;		On exit  : 0/0
  2004 ;;		Unchanged: 0/0
  2005 ;; Data sizes:     COMMON   BANK0   BANK1   BANK3   BANK2
  2006 ;;      Params:         0       4       0       0       0
  2007 ;;      Locals:         0       2       0       0       0
  2008 ;;      Temps:          0       0       0       0       0
  2009 ;;      Totals:         0       6       0       0       0
  2010 ;;Total ram usage:        6 bytes
  2011 ;; Hardware stack levels used: 1
  2012 ;; Hardware stack levels required when called: 2
  2013 ;; This function calls:
  2014 ;;		Nothing
  2015 ;; This function is called by:
  2016 ;;		_set_time
  2017 ;; This function uses a non-reentrant model
  2018 ;;
  2019                           
  2020     0E59                     ___wmul:	
  2021                           ;psect for function ___wmul
  2022                           
  2023     0E59                     l2351:	
  2024                           ;incstack = 0
  2025                           ; Regs used in ___wmul: [wreg+status,2+status,0]
  2026                           
  2027     0E59  1283               	bcf	3,5	;RP0=0, select bank0
  2028     0E5A  1303               	bcf	3,6	;RP1=0, select bank0
  2029     0E5B  01B2               	clrf	___wmul@product
  2030     0E5C  01B3               	clrf	___wmul@product+1
  2031     0E5D                     l2353:
  2032     0E5D  1C2E               	btfss	___wmul@multiplier,0
  2033     0E5E  2E60               	goto	u2191
  2034     0E5F  2E61               	goto	u2190
  2035     0E60                     u2191:
  2036     0E60  2E67               	goto	l385
  2037     0E61                     u2190:
  2038     0E61                     l2355:
  2039     0E61  0830               	movf	___wmul@multiplicand,w
  2040     0E62  07B2               	addwf	___wmul@product,f
  2041     0E63  1803               	skipnc
  2042     0E64  0AB3               	incf	___wmul@product+1,f
  2043     0E65  0831               	movf	___wmul@multiplicand+1,w
  2044     0E66  07B3               	addwf	___wmul@product+1,f
  2045     0E67                     l385:
  2046     0E67  3001               	movlw	1
  2047     0E68                     u2205:
  2048     0E68  1003               	clrc
  2049     0E69  0DB0               	rlf	___wmul@multiplicand,f
  2050     0E6A  0DB1               	rlf	___wmul@multiplicand+1,f
  2051     0E6B  3EFF               	addlw	-1
  2052     0E6C  1D03               	skipz
  2053     0E6D  2E68               	goto	u2205
  2054     0E6E                     l2357:
  2055     0E6E  3001               	movlw	1
  2056     0E6F                     u2215:
  2057     0E6F  1003               	clrc
  2058     0E70  0CAF               	rrf	___wmul@multiplier+1,f
  2059     0E71  0CAE               	rrf	___wmul@multiplier,f
  2060     0E72  3EFF               	addlw	-1
  2061     0E73  1D03               	skipz
  2062     0E74  2E6F               	goto	u2215
  2063     0E75                     l2359:
  2064     0E75  082E               	movf	___wmul@multiplier,w
  2065     0E76  042F               	iorwf	___wmul@multiplier+1,w
  2066     0E77  1D03               	btfss	3,2
  2067     0E78  2E7A               	goto	u2221
  2068     0E79  2E7B               	goto	u2220
  2069     0E7A                     u2221:
  2070     0E7A  2E5D               	goto	l2353
  2071     0E7B                     u2220:
  2072     0E7B                     l2361:
  2073     0E7B  0833               	movf	___wmul@product+1,w
  2074     0E7C  00AF               	movwf	?___wmul+1
  2075     0E7D  0832               	movf	___wmul@product,w
  2076     0E7E  00AE               	movwf	?___wmul
  2077     0E7F                     l387:
  2078     0E7F  0008               	return
  2079     0E80                     __end_of___wmul:
  2080                           
  2081                           	psect	text3
  2082     0E32                     __ptext3:	
  2083 ;; *************** function _read_matrix_keypad *****************
  2084 ;; Defined at:
  2085 ;;		line 110 in file "matrix_keypad.c"
  2086 ;; Parameters:    Size  Location     Type
  2087 ;;  mode            1    wreg     unsigned char 
  2088 ;; Auto vars:     Size  Location     Type
  2089 ;;  mode            1    2[BANK0 ] unsigned char 
  2090 ;;  key             1    3[BANK0 ] unsigned char 
  2091 ;; Return value:  Size  Location     Type
  2092 ;;                  1    wreg      unsigned char 
  2093 ;; Registers used:
  2094 ;;		wreg, status,2, status,0, pclath, cstack
  2095 ;; Tracked objects:
  2096 ;;		On entry : 0/0
  2097 ;;		On exit  : 0/0
  2098 ;;		Unchanged: 0/0
  2099 ;; Data sizes:     COMMON   BANK0   BANK1   BANK3   BANK2
  2100 ;;      Params:         0       0       0       0       0
  2101 ;;      Locals:         0       2       0       0       0
  2102 ;;      Temps:          0       0       0       0       0
  2103 ;;      Totals:         0       2       0       0       0
  2104 ;;Total ram usage:        2 bytes
  2105 ;; Hardware stack levels used: 1
  2106 ;; Hardware stack levels required when called: 3
  2107 ;; This function calls:
  2108 ;;		_scan_keypad
  2109 ;; This function is called by:
  2110 ;;		_main
  2111 ;; This function uses a non-reentrant model
  2112 ;;
  2113                           
  2114     0E32                     _read_matrix_keypad:	
  2115                           ;psect for function _read_matrix_keypad
  2116                           
  2117                           
  2118                           ;incstack = 0
  2119                           ; Regs used in _read_matrix_keypad: [wreg+status,2+status,0+pclath+cstack]
  2120                           ;read_matrix_keypad@mode stored from wreg
  2121     0E32  1283               	bcf	3,5	;RP0=0, select bank0
  2122     0E33  1303               	bcf	3,6	;RP1=0, select bank0
  2123     0E34  00A2               	movwf	read_matrix_keypad@mode
  2124     0E35                     l1823:
  2125                           
  2126                           ;matrix_keypad.c: 110: unsigned char read_matrix_keypad(unsigned char mode);matrix_keypa
      +                          d.c: 111: {;matrix_keypad.c: 112:     static unsigned char once = 1;;matrix_keypad.c: 11
      +                          3:     unsigned char key;;matrix_keypad.c: 115:     key = scan_keypad();
  2127     0E35  120A  118A  26CA  120A  158A  	fcall	_scan_keypad
  2128     0E3A  1283               	bcf	3,5	;RP0=0, select bank0
  2129     0E3B  1303               	bcf	3,6	;RP1=0, select bank0
  2130     0E3C  00A3               	movwf	read_matrix_keypad@key
  2131     0E3D                     l1825:
  2132                           
  2133                           ;matrix_keypad.c: 117:     if (mode == 0)
  2134     0E3D  0822               	movf	read_matrix_keypad@mode,w
  2135     0E3E  1D03               	btfss	3,2
  2136     0E3F  2E41               	goto	u1351
  2137     0E40  2E42               	goto	u1350
  2138     0E41                     u1351:
  2139     0E41  2E44               	goto	l1833
  2140     0E42                     u1350:
  2141     0E42                     l1827:
  2142                           
  2143                           ;matrix_keypad.c: 118:     {;matrix_keypad.c: 119:         return key;
  2144     0E42  0823               	movf	read_matrix_keypad@key,w
  2145     0E43  2E58               	goto	l191
  2146     0E44                     l1833:
  2147                           
  2148                           ;matrix_keypad.c: 122:     {;matrix_keypad.c: 123:         if ((key != 0xFF) && once)
  2149     0E44  0A23               	incf	read_matrix_keypad@key,w
  2150     0E45  1903               	btfsc	3,2
  2151     0E46  2E48               	goto	u1361
  2152     0E47  2E49               	goto	u1360
  2153     0E48                     u1361:
  2154     0E48  2E50               	goto	l1845
  2155     0E49                     u1360:
  2156     0E49                     l1835:
  2157     0E49  084E               	movf	read_matrix_keypad@once,w
  2158     0E4A  1903               	btfsc	3,2
  2159     0E4B  2E4D               	goto	u1371
  2160     0E4C  2E4E               	goto	u1370
  2161     0E4D                     u1371:
  2162     0E4D  2E50               	goto	l1845
  2163     0E4E                     u1370:
  2164     0E4E                     l1837:
  2165                           
  2166                           ;matrix_keypad.c: 124:         {;matrix_keypad.c: 125:             once = 0;
  2167     0E4E  01CE               	clrf	read_matrix_keypad@once
  2168     0E4F  2E42               	goto	l1827
  2169     0E50                     l1845:
  2170     0E50  0A23               	incf	read_matrix_keypad@key,w
  2171     0E51  1D03               	btfss	3,2
  2172     0E52  2E54               	goto	u1381
  2173     0E53  2E55               	goto	u1380
  2174     0E54                     u1381:
  2175     0E54  2E57               	goto	l1849
  2176     0E55                     u1380:
  2177     0E55                     l1847:
  2178                           
  2179                           ;matrix_keypad.c: 130:         {;matrix_keypad.c: 131:             once = 1;
  2180     0E55  3001               	movlw	1
  2181     0E56  00CE               	movwf	read_matrix_keypad@once
  2182     0E57                     l1849:
  2183                           
  2184                           ;matrix_keypad.c: 135:     return 0xFF;
  2185     0E57  30FF               	movlw	255
  2186     0E58                     l191:
  2187     0E58  0008               	return
  2188     0E59                     __end_of_read_matrix_keypad:
  2189                           
  2190                           	psect	text4
  2191     06CA                     __ptext4:	
  2192 ;; *************** function _scan_keypad *****************
  2193 ;; Defined at:
  2194 ;;		line 23 in file "matrix_keypad.c"
  2195 ;; Parameters:    Size  Location     Type
  2196 ;;		None
  2197 ;; Auto vars:     Size  Location     Type
  2198 ;;  i               2    0[BANK0 ] int 
  2199 ;; Return value:  Size  Location     Type
  2200 ;;                  1    wreg      unsigned char 
  2201 ;; Registers used:
  2202 ;;		wreg, status,2, status,0
  2203 ;; Tracked objects:
  2204 ;;		On entry : 0/0
  2205 ;;		On exit  : 0/0
  2206 ;;		Unchanged: 0/0
  2207 ;; Data sizes:     COMMON   BANK0   BANK1   BANK3   BANK2
  2208 ;;      Params:         0       0       0       0       0
  2209 ;;      Locals:         0       2       0       0       0
  2210 ;;      Temps:          0       0       0       0       0
  2211 ;;      Totals:         0       2       0       0       0
  2212 ;;Total ram usage:        2 bytes
  2213 ;; Hardware stack levels used: 1
  2214 ;; Hardware stack levels required when called: 2
  2215 ;; This function calls:
  2216 ;;		Nothing
  2217 ;; This function is called by:
  2218 ;;		_read_matrix_keypad
  2219 ;; This function uses a non-reentrant model
  2220 ;;
  2221                           
  2222     06CA                     _scan_keypad:	
  2223                           ;psect for function _scan_keypad
  2224                           
  2225     06CA                     l1597:	
  2226                           ;incstack = 0
  2227                           ; Regs used in _scan_keypad: [wreg+status,2+status,0]
  2228                           
  2229                           
  2230                           ;matrix_keypad.c: 25:     int i;;matrix_keypad.c: 27:     RD3 = 0;
  2231     06CA  1283               	bcf	3,5	;RP0=0, select bank0
  2232     06CB  1303               	bcf	3,6	;RP1=0, select bank0
  2233     06CC  1188               	bcf	8,3	;volatile
  2234                           
  2235                           ;matrix_keypad.c: 28:     RD2 = 1;
  2236     06CD  1508               	bsf	8,2	;volatile
  2237                           
  2238                           ;matrix_keypad.c: 29:     RD1 = 1;
  2239     06CE  1488               	bsf	8,1	;volatile
  2240                           
  2241                           ;matrix_keypad.c: 30:     RD0 = 1;
  2242     06CF  1408               	bsf	8,0	;volatile
  2243     06D0                     l1599:
  2244                           
  2245                           ;matrix_keypad.c: 32:     for (i = 100; i--; );
  2246     06D0  3064               	movlw	100
  2247     06D1  00A0               	movwf	scan_keypad@i
  2248     06D2  3000               	movlw	0
  2249     06D3  00A1               	movwf	scan_keypad@i+1
  2250     06D4                     l1601:
  2251     06D4  30FF               	movlw	255
  2252     06D5  07A0               	addwf	scan_keypad@i,f
  2253     06D6  1803               	skipnc
  2254     06D7  0AA1               	incf	scan_keypad@i+1,f
  2255     06D8  30FF               	movlw	255
  2256     06D9  07A1               	addwf	scan_keypad@i+1,f
  2257     06DA  0A20               	incf	scan_keypad@i,w
  2258     06DB  1D03               	skipz
  2259     06DC  2EE1               	goto	u961
  2260     06DD  0A21               	incf	scan_keypad@i+1,w
  2261     06DE  1D03               	btfss	3,2
  2262     06DF  2EE1               	goto	u961
  2263     06E0  2EE2               	goto	u960
  2264     06E1                     u961:
  2265     06E1  2ED4               	goto	l1601
  2266     06E2                     u960:
  2267     06E2                     l155:
  2268                           
  2269                           ;matrix_keypad.c: 34:     if (RB0 == 0)
  2270     06E2  1806               	btfsc	6,0	;volatile
  2271     06E3  2EE5               	goto	u971
  2272     06E4  2EE6               	goto	u970
  2273     06E5                     u971:
  2274     06E5  2EE8               	goto	l156
  2275     06E6                     u970:
  2276     06E6                     l1603:
  2277                           
  2278                           ;matrix_keypad.c: 35:     {;matrix_keypad.c: 36:         return 1;
  2279     06E6  3001               	movlw	1
  2280     06E7  2F6D               	goto	l157
  2281     06E8                     l156:	
  2282                           ;matrix_keypad.c: 38:     else if (RB1 == 0)
  2283                           
  2284     06E8  1886               	btfsc	6,1	;volatile
  2285     06E9  2EEB               	goto	u981
  2286     06EA  2EEC               	goto	u980
  2287     06EB                     u981:
  2288     06EB  2EEE               	goto	l159
  2289     06EC                     u980:
  2290     06EC                     l1609:
  2291                           
  2292                           ;matrix_keypad.c: 39:     {;matrix_keypad.c: 40:         return 2;
  2293     06EC  3002               	movlw	2
  2294     06ED  2F6D               	goto	l157
  2295     06EE                     l159:	
  2296                           ;matrix_keypad.c: 42:     else if (RB2 == 0)
  2297                           
  2298     06EE  1906               	btfsc	6,2	;volatile
  2299     06EF  2EF1               	goto	u991
  2300     06F0  2EF2               	goto	u990
  2301     06F1                     u991:
  2302     06F1  2EF4               	goto	l158
  2303     06F2                     u990:
  2304     06F2                     l1615:
  2305                           
  2306                           ;matrix_keypad.c: 43:     {;matrix_keypad.c: 44:         return 3;
  2307     06F2  3003               	movlw	3
  2308     06F3  2F6D               	goto	l157
  2309     06F4                     l158:
  2310                           
  2311                           ;matrix_keypad.c: 47:     RD3 = 1;
  2312     06F4  1588               	bsf	8,3	;volatile
  2313                           
  2314                           ;matrix_keypad.c: 48:     RD2 = 0;
  2315     06F5  1108               	bcf	8,2	;volatile
  2316                           
  2317                           ;matrix_keypad.c: 49:     RD1 = 1;
  2318     06F6  1488               	bsf	8,1	;volatile
  2319                           
  2320                           ;matrix_keypad.c: 50:     RD0 = 1;
  2321     06F7  1408               	bsf	8,0	;volatile
  2322     06F8                     l1619:
  2323                           
  2324                           ;matrix_keypad.c: 52:     for (i = 100; i--; );
  2325     06F8  3064               	movlw	100
  2326     06F9  00A0               	movwf	scan_keypad@i
  2327     06FA  3000               	movlw	0
  2328     06FB  00A1               	movwf	scan_keypad@i+1
  2329     06FC                     l1621:
  2330     06FC  30FF               	movlw	255
  2331     06FD  07A0               	addwf	scan_keypad@i,f
  2332     06FE  1803               	skipnc
  2333     06FF  0AA1               	incf	scan_keypad@i+1,f
  2334     0700  30FF               	movlw	255
  2335     0701  07A1               	addwf	scan_keypad@i+1,f
  2336     0702  0A20               	incf	scan_keypad@i,w
  2337     0703  1D03               	skipz
  2338     0704  2F09               	goto	u1001
  2339     0705  0A21               	incf	scan_keypad@i+1,w
  2340     0706  1D03               	btfss	3,2
  2341     0707  2F09               	goto	u1001
  2342     0708  2F0A               	goto	u1000
  2343     0709                     u1001:
  2344     0709  2EFC               	goto	l1621
  2345     070A                     u1000:
  2346     070A                     l164:
  2347                           
  2348                           ;matrix_keypad.c: 54:     if (RB0 == 0)
  2349     070A  1806               	btfsc	6,0	;volatile
  2350     070B  2F0D               	goto	u1011
  2351     070C  2F0E               	goto	u1010
  2352     070D                     u1011:
  2353     070D  2F10               	goto	l165
  2354     070E                     u1010:
  2355     070E                     l1623:
  2356                           
  2357                           ;matrix_keypad.c: 55:     {;matrix_keypad.c: 56:         return 4;
  2358     070E  3004               	movlw	4
  2359     070F  2F6D               	goto	l157
  2360     0710                     l165:	
  2361                           ;matrix_keypad.c: 58:     else if (RB1 == 0)
  2362                           
  2363     0710  1886               	btfsc	6,1	;volatile
  2364     0711  2F13               	goto	u1021
  2365     0712  2F14               	goto	u1020
  2366     0713                     u1021:
  2367     0713  2F16               	goto	l167
  2368     0714                     u1020:
  2369     0714                     l1629:
  2370                           
  2371                           ;matrix_keypad.c: 59:     {;matrix_keypad.c: 60:         return 5;
  2372     0714  3005               	movlw	5
  2373     0715  2F6D               	goto	l157
  2374     0716                     l167:	
  2375                           ;matrix_keypad.c: 62:     else if (RB2 == 0)
  2376                           
  2377     0716  1906               	btfsc	6,2	;volatile
  2378     0717  2F19               	goto	u1031
  2379     0718  2F1A               	goto	u1030
  2380     0719                     u1031:
  2381     0719  2F1C               	goto	l166
  2382     071A                     u1030:
  2383     071A                     l1635:
  2384                           
  2385                           ;matrix_keypad.c: 63:     {;matrix_keypad.c: 64:         return 6;
  2386     071A  3006               	movlw	6
  2387     071B  2F6D               	goto	l157
  2388     071C                     l166:
  2389                           
  2390                           ;matrix_keypad.c: 67:     RD3 = 1;
  2391     071C  1588               	bsf	8,3	;volatile
  2392                           
  2393                           ;matrix_keypad.c: 68:     RD2 = 1;
  2394     071D  1508               	bsf	8,2	;volatile
  2395                           
  2396                           ;matrix_keypad.c: 69:     RD1 = 0;
  2397     071E  1088               	bcf	8,1	;volatile
  2398                           
  2399                           ;matrix_keypad.c: 70:     RD0 = 1;
  2400     071F  1408               	bsf	8,0	;volatile
  2401     0720                     l1639:
  2402                           
  2403                           ;matrix_keypad.c: 72:     for (i = 100; i--; );
  2404     0720  3064               	movlw	100
  2405     0721  00A0               	movwf	scan_keypad@i
  2406     0722  3000               	movlw	0
  2407     0723  00A1               	movwf	scan_keypad@i+1
  2408     0724                     l1641:
  2409     0724  30FF               	movlw	255
  2410     0725  07A0               	addwf	scan_keypad@i,f
  2411     0726  1803               	skipnc
  2412     0727  0AA1               	incf	scan_keypad@i+1,f
  2413     0728  30FF               	movlw	255
  2414     0729  07A1               	addwf	scan_keypad@i+1,f
  2415     072A  0A20               	incf	scan_keypad@i,w
  2416     072B  1D03               	skipz
  2417     072C  2F31               	goto	u1041
  2418     072D  0A21               	incf	scan_keypad@i+1,w
  2419     072E  1D03               	btfss	3,2
  2420     072F  2F31               	goto	u1041
  2421     0730  2F32               	goto	u1040
  2422     0731                     u1041:
  2423     0731  2F24               	goto	l1641
  2424     0732                     u1040:
  2425     0732                     l172:
  2426                           
  2427                           ;matrix_keypad.c: 74:     if (RB0 == 0)
  2428     0732  1806               	btfsc	6,0	;volatile
  2429     0733  2F35               	goto	u1051
  2430     0734  2F36               	goto	u1050
  2431     0735                     u1051:
  2432     0735  2F38               	goto	l173
  2433     0736                     u1050:
  2434     0736                     l1643:
  2435                           
  2436                           ;matrix_keypad.c: 75:     {;matrix_keypad.c: 76:         return 7;
  2437     0736  3007               	movlw	7
  2438     0737  2F6D               	goto	l157
  2439     0738                     l173:	
  2440                           ;matrix_keypad.c: 78:     else if (RB1 == 0)
  2441                           
  2442     0738  1886               	btfsc	6,1	;volatile
  2443     0739  2F3B               	goto	u1061
  2444     073A  2F3C               	goto	u1060
  2445     073B                     u1061:
  2446     073B  2F3E               	goto	l175
  2447     073C                     u1060:
  2448     073C                     l1649:
  2449                           
  2450                           ;matrix_keypad.c: 79:     {;matrix_keypad.c: 80:         return 8;
  2451     073C  3008               	movlw	8
  2452     073D  2F6D               	goto	l157
  2453     073E                     l175:	
  2454                           ;matrix_keypad.c: 82:     else if (RB2 == 0)
  2455                           
  2456     073E  1906               	btfsc	6,2	;volatile
  2457     073F  2F41               	goto	u1071
  2458     0740  2F42               	goto	u1070
  2459     0741                     u1071:
  2460     0741  2F44               	goto	l174
  2461     0742                     u1070:
  2462     0742                     l1655:
  2463                           
  2464                           ;matrix_keypad.c: 83:     {;matrix_keypad.c: 84:         return 9;
  2465     0742  3009               	movlw	9
  2466     0743  2F6D               	goto	l157
  2467     0744                     l174:
  2468                           
  2469                           ;matrix_keypad.c: 87:     RD3 = 1;
  2470     0744  1588               	bsf	8,3	;volatile
  2471                           
  2472                           ;matrix_keypad.c: 88:     RD2 = 1;
  2473     0745  1508               	bsf	8,2	;volatile
  2474                           
  2475                           ;matrix_keypad.c: 89:     RD1 = 1;
  2476     0746  1488               	bsf	8,1	;volatile
  2477                           
  2478                           ;matrix_keypad.c: 90:     RD0 = 0;
  2479     0747  1008               	bcf	8,0	;volatile
  2480     0748                     l1659:
  2481                           
  2482                           ;matrix_keypad.c: 92:     for (i = 100; i--; );
  2483     0748  3064               	movlw	100
  2484     0749  00A0               	movwf	scan_keypad@i
  2485     074A  3000               	movlw	0
  2486     074B  00A1               	movwf	scan_keypad@i+1
  2487     074C                     l1661:
  2488     074C  30FF               	movlw	255
  2489     074D  07A0               	addwf	scan_keypad@i,f
  2490     074E  1803               	skipnc
  2491     074F  0AA1               	incf	scan_keypad@i+1,f
  2492     0750  30FF               	movlw	255
  2493     0751  07A1               	addwf	scan_keypad@i+1,f
  2494     0752  0A20               	incf	scan_keypad@i,w
  2495     0753  1D03               	skipz
  2496     0754  2F59               	goto	u1081
  2497     0755  0A21               	incf	scan_keypad@i+1,w
  2498     0756  1D03               	btfss	3,2
  2499     0757  2F59               	goto	u1081
  2500     0758  2F5A               	goto	u1080
  2501     0759                     u1081:
  2502     0759  2F4C               	goto	l1661
  2503     075A                     u1080:
  2504     075A                     l180:
  2505                           
  2506                           ;matrix_keypad.c: 94:     if (RB0 == 0)
  2507     075A  1806               	btfsc	6,0	;volatile
  2508     075B  2F5D               	goto	u1091
  2509     075C  2F5E               	goto	u1090
  2510     075D                     u1091:
  2511     075D  2F60               	goto	l181
  2512     075E                     u1090:
  2513     075E                     l1663:
  2514                           
  2515                           ;matrix_keypad.c: 95:     {;matrix_keypad.c: 96:         return '*';
  2516     075E  302A               	movlw	42
  2517     075F  2F6D               	goto	l157
  2518     0760                     l181:	
  2519                           ;matrix_keypad.c: 98:     else if (RB1 == 0)
  2520                           
  2521     0760  1886               	btfsc	6,1	;volatile
  2522     0761  2F63               	goto	u1101
  2523     0762  2F64               	goto	u1100
  2524     0763                     u1101:
  2525     0763  2F66               	goto	l183
  2526     0764                     u1100:
  2527     0764                     l1669:
  2528                           
  2529                           ;matrix_keypad.c: 99:     {;matrix_keypad.c: 100:         return 0;
  2530     0764  3000               	movlw	0
  2531     0765  2F6D               	goto	l157
  2532     0766                     l183:	
  2533                           ;matrix_keypad.c: 102:     else if (RB2 == 0)
  2534                           
  2535     0766  1906               	btfsc	6,2	;volatile
  2536     0767  2F69               	goto	u1111
  2537     0768  2F6A               	goto	u1110
  2538     0769                     u1111:
  2539     0769  2F6C               	goto	l1679
  2540     076A                     u1110:
  2541     076A                     l1675:
  2542                           
  2543                           ;matrix_keypad.c: 103:     {;matrix_keypad.c: 104:         return '#';
  2544     076A  3023               	movlw	35
  2545     076B  2F6D               	goto	l157
  2546     076C                     l1679:
  2547                           
  2548                           ;matrix_keypad.c: 107:     return 0xFF;
  2549     076C  30FF               	movlw	255
  2550     076D                     l157:
  2551     076D  0008               	return
  2552     076E                     __end_of_scan_keypad:
  2553                           
  2554                           	psect	text5
  2555     0F8E                     __ptext5:	
  2556 ;; *************** function _power_on *****************
  2557 ;; Defined at:
  2558 ;;		line 16 in file "micro_oven.c"
  2559 ;; Parameters:    Size  Location     Type
  2560 ;;		None
  2561 ;; Auto vars:     Size  Location     Type
  2562 ;;  i               2   12[BANK0 ] int 
  2563 ;;  i               2   10[BANK0 ] int 
  2564 ;; Return value:  Size  Location     Type
  2565 ;;                  1    wreg      void 
  2566 ;; Registers used:
  2567 ;;		wreg, fsr0l, fsr0h, status,2, status,0, pclath, btemp1, cstack
  2568 ;; Tracked objects:
  2569 ;;		On entry : 0/0
  2570 ;;		On exit  : 0/0
  2571 ;;		Unchanged: 0/0
  2572 ;; Data sizes:     COMMON   BANK0   BANK1   BANK3   BANK2
  2573 ;;      Params:         0       0       0       0       0
  2574 ;;      Locals:         0       4       0       0       0
  2575 ;;      Temps:          0       3       0       0       0
  2576 ;;      Totals:         0       7       0       0       0
  2577 ;;Total ram usage:        7 bytes
  2578 ;; Hardware stack levels used: 1
  2579 ;; Hardware stack levels required when called: 3
  2580 ;; This function calls:
  2581 ;;		_clcd_print
  2582 ;;		_clcd_putch
  2583 ;; This function is called by:
  2584 ;;		_main
  2585 ;; This function uses a non-reentrant model
  2586 ;;
  2587                           
  2588     0F8E                     _power_on:	
  2589                           ;psect for function _power_on
  2590                           
  2591     0F8E                     l1795:	
  2592                           ;incstack = 0
  2593                           ; Regs used in _power_on: [wreg-fsr0h+status,2+status,0+pclath+btemp1+cstack]
  2594                           
  2595                           
  2596                           ;micro_oven.c: 18:     for(int i = 0; i<16; i++)
  2597     0F8E  1283               	bcf	3,5	;RP0=0, select bank0
  2598     0F8F  1303               	bcf	3,6	;RP1=0, select bank0
  2599     0F90  01AA               	clrf	power_on@i
  2600     0F91  01AB               	clrf	power_on@i+1
  2601     0F92                     l1801:
  2602                           
  2603                           ;micro_oven.c: 19:     {;micro_oven.c: 20:         clcd_putch(0xFF, (0x80 + i));
  2604     0F92  1283               	bcf	3,5	;RP0=0, select bank0
  2605     0F93  1303               	bcf	3,6	;RP1=0, select bank0
  2606     0F94  082A               	movf	power_on@i,w
  2607     0F95  3E80               	addlw	128
  2608     0F96  00A4               	movwf	clcd_putch@addr
  2609     0F97  30FF               	movlw	255
  2610     0F98  120A  158A  25FF  120A  158A  	fcall	_clcd_putch
  2611     0F9D                     l1803:
  2612                           
  2613                           ;micro_oven.c: 21:     }
  2614     0F9D  3001               	movlw	1
  2615     0F9E  1283               	bcf	3,5	;RP0=0, select bank0
  2616     0F9F  1303               	bcf	3,6	;RP1=0, select bank0
  2617     0FA0  07AA               	addwf	power_on@i,f
  2618     0FA1  1803               	skipnc
  2619     0FA2  0AAB               	incf	power_on@i+1,f
  2620     0FA3  3000               	movlw	0
  2621     0FA4  07AB               	addwf	power_on@i+1,f
  2622     0FA5                     l1805:
  2623     0FA5  082B               	movf	power_on@i+1,w
  2624     0FA6  3A80               	xorlw	128
  2625     0FA7  00FF               	movwf	btemp1
  2626     0FA8  3080               	movlw	128
  2627     0FA9  027F               	subwf	btemp1,w
  2628     0FAA  1D03               	skipz
  2629     0FAB  2FAE               	goto	u1335
  2630     0FAC  3010               	movlw	16
  2631     0FAD  022A               	subwf	power_on@i,w
  2632     0FAE                     u1335:
  2633     0FAE  1C03               	skipc
  2634     0FAF  2FB1               	goto	u1331
  2635     0FB0  2FB2               	goto	u1330
  2636     0FB1                     u1331:
  2637     0FB1  2F92               	goto	l1801
  2638     0FB2                     u1330:
  2639     0FB2                     l1807:
  2640                           
  2641                           ;micro_oven.c: 22:     clcd_print("  Powering ON   ", (0xC0 + 0));
  2642     0FB2  3001               	movlw	(low ((STR_5-__stringbase)| (0+32768)))& (0+255)
  2643     0FB3  1283               	bcf	3,5	;RP0=0, select bank0
  2644     0FB4  1303               	bcf	3,6	;RP1=0, select bank0
  2645     0FB5  00A4               	movwf	clcd_print@str
  2646     0FB6  3080               	movlw	128
  2647     0FB7  00A5               	movwf	clcd_print@str+1
  2648     0FB8  30C0               	movlw	192
  2649     0FB9  00A6               	movwf	clcd_print@addr
  2650     0FBA  120A  158A  2680  120A  158A  	fcall	_clcd_print
  2651                           
  2652                           ;micro_oven.c: 23:     clcd_print(" Microwave Oven ", (0x90 + 0));
  2653     0FBF  3023               	movlw	(low ((STR_6-__stringbase)| (0+32768)))& (0+255)
  2654     0FC0  1283               	bcf	3,5	;RP0=0, select bank0
  2655     0FC1  1303               	bcf	3,6	;RP1=0, select bank0
  2656     0FC2  00A4               	movwf	clcd_print@str
  2657     0FC3  3080               	movlw	128
  2658     0FC4  00A5               	movwf	clcd_print@str+1
  2659     0FC5  3090               	movlw	144
  2660     0FC6  00A6               	movwf	clcd_print@addr
  2661     0FC7  120A  158A  2680  120A  158A  	fcall	_clcd_print
  2662     0FCC                     l1809:
  2663                           
  2664                           ;micro_oven.c: 24:     for(int i = 0; i<16; i++)
  2665     0FCC  1283               	bcf	3,5	;RP0=0, select bank0
  2666     0FCD  1303               	bcf	3,6	;RP1=0, select bank0
  2667     0FCE  01AC               	clrf	power_on@i_163
  2668     0FCF  01AD               	clrf	power_on@i_163+1
  2669     0FD0                     l1815:
  2670                           
  2671                           ;micro_oven.c: 25:     {;micro_oven.c: 26:         clcd_putch(0xFF, (0xD0 + i));
  2672     0FD0  1283               	bcf	3,5	;RP0=0, select bank0
  2673     0FD1  1303               	bcf	3,6	;RP1=0, select bank0
  2674     0FD2  082C               	movf	power_on@i_163,w
  2675     0FD3  3ED0               	addlw	208
  2676     0FD4  00A4               	movwf	clcd_putch@addr
  2677     0FD5  30FF               	movlw	255
  2678     0FD6  120A  158A  25FF  120A  158A  	fcall	_clcd_putch
  2679     0FDB                     l1817:
  2680                           
  2681                           ;micro_oven.c: 27:     }
  2682     0FDB  3001               	movlw	1
  2683     0FDC  1283               	bcf	3,5	;RP0=0, select bank0
  2684     0FDD  1303               	bcf	3,6	;RP1=0, select bank0
  2685     0FDE  07AC               	addwf	power_on@i_163,f
  2686     0FDF  1803               	skipnc
  2687     0FE0  0AAD               	incf	power_on@i_163+1,f
  2688     0FE1  3000               	movlw	0
  2689     0FE2  07AD               	addwf	power_on@i_163+1,f
  2690     0FE3                     l1819:
  2691     0FE3  082D               	movf	power_on@i_163+1,w
  2692     0FE4  3A80               	xorlw	128
  2693     0FE5  00FF               	movwf	btemp1
  2694     0FE6  3080               	movlw	128
  2695     0FE7  027F               	subwf	btemp1,w
  2696     0FE8  1D03               	skipz
  2697     0FE9  2FEC               	goto	u1345
  2698     0FEA  3010               	movlw	16
  2699     0FEB  022C               	subwf	power_on@i_163,w
  2700     0FEC                     u1345:
  2701     0FEC  1C03               	skipc
  2702     0FED  2FEF               	goto	u1341
  2703     0FEE  2FF0               	goto	u1340
  2704     0FEF                     u1341:
  2705     0FEF  2FD0               	goto	l1815
  2706     0FF0                     u1340:
  2707     0FF0                     l1821:
  2708                           
  2709                           ;micro_oven.c: 28:     _delay((unsigned long)((1500)*(20000000/4000.0)));
  2710     0FF0  3027               	movlw	39
  2711     0FF1  1283               	bcf	3,5	;RP0=0, select bank0
  2712     0FF2  1303               	bcf	3,6	;RP1=0, select bank0
  2713     0FF3  00A9               	movwf	??_power_on+2
  2714     0FF4  300D               	movlw	13
  2715     0FF5  00A8               	movwf	??_power_on+1
  2716     0FF6  3025               	movlw	37
  2717     0FF7  00A7               	movwf	??_power_on
  2718     0FF8                     u2437:
  2719     0FF8  0BA7               	decfsz	??_power_on,f
  2720     0FF9  2FF8               	goto	u2437
  2721     0FFA  0BA8               	decfsz	??_power_on+1,f
  2722     0FFB  2FF8               	goto	u2437
  2723     0FFC  0BA9               	decfsz	??_power_on+2,f
  2724     0FFD  2FF8               	goto	u2437
  2725     0FFE  2FFF               	nop2
  2726     0FFF                     l234:
  2727     0FFF  0008               	return
  2728     1000                     __end_of_power_on:
  2729                           
  2730                           	psect	text6
  2731     0E14                     __ptext6:	
  2732 ;; *************** function _init_config *****************
  2733 ;; Defined at:
  2734 ;;		line 19 in file "main.c"
  2735 ;; Parameters:    Size  Location     Type
  2736 ;;		None
  2737 ;; Auto vars:     Size  Location     Type
  2738 ;;		None
  2739 ;; Return value:  Size  Location     Type
  2740 ;;                  1    wreg      void 
  2741 ;; Registers used:
  2742 ;;		wreg, status,2, status,0, pclath, cstack
  2743 ;; Tracked objects:
  2744 ;;		On entry : 0/0
  2745 ;;		On exit  : 0/0
  2746 ;;		Unchanged: 0/0
  2747 ;; Data sizes:     COMMON   BANK0   BANK1   BANK3   BANK2
  2748 ;;      Params:         0       0       0       0       0
  2749 ;;      Locals:         0       0       0       0       0
  2750 ;;      Temps:          0       0       0       0       0
  2751 ;;      Totals:         0       0       0       0       0
  2752 ;;Total ram usage:        0 bytes
  2753 ;; Hardware stack levels used: 1
  2754 ;; Hardware stack levels required when called: 5
  2755 ;; This function calls:
  2756 ;;		_init_clcd
  2757 ;;		_init_matrix_keypad
  2758 ;;		_init_timer2
  2759 ;; This function is called by:
  2760 ;;		_main
  2761 ;; This function uses a non-reentrant model
  2762 ;;
  2763                           
  2764     0E14                     _init_config:	
  2765                           ;psect for function _init_config
  2766                           
  2767     0E14                     l1779:	
  2768                           ;incstack = 0
  2769                           ; Regs used in _init_config: [wreg+status,2+status,0+pclath+cstack]
  2770                           
  2771                           
  2772                           ;main.c: 21: void main(void)
  2773     0E14  120A  158A  25D2  120A  158A  	fcall	_init_clcd
  2774                           
  2775                           ;main.c: 22: {
  2776     0E19  120A  118A  27ED  120A  158A  	fcall	_init_matrix_keypad
  2777     0E1E                     l1781:
  2778                           
  2779                           ;main.c: 23:     init_config();
  2780     0E1E  120A  158A  25DD  120A  158A  	fcall	_init_timer2
  2781     0E23                     l1783:
  2782                           
  2783                           ;main.c: 25:     unsigned char key;
  2784     0E23  1683               	bsf	3,5	;RP0=1, select bank1
  2785     0E24  1303               	bcf	3,6	;RP1=0, select bank1
  2786     0E25  1087               	bcf	7,1	;volatile
  2787     0E26                     l1785:
  2788                           
  2789                           ;main.c: 26:     unsigned char operation_mode = 0x01;
  2790     0E26  1283               	bcf	3,5	;RP0=0, select bank0
  2791     0E27  1303               	bcf	3,6	;RP1=0, select bank0
  2792     0E28  1087               	bcf	7,1	;volatile
  2793     0E29                     l1787:
  2794                           
  2795                           ;main.c: 28: 
  2796     0E29  1683               	bsf	3,5	;RP0=1, select bank1
  2797     0E2A  1303               	bcf	3,6	;RP1=0, select bank1
  2798     0E2B  1107               	bcf	7,2	;volatile
  2799     0E2C                     l1789:
  2800                           
  2801                           ;main.c: 29:     power_on();
  2802     0E2C  1283               	bcf	3,5	;RP0=0, select bank0
  2803     0E2D  1303               	bcf	3,6	;RP1=0, select bank0
  2804     0E2E  1107               	bcf	7,2	;volatile
  2805     0E2F                     l1791:
  2806                           
  2807                           ;main.c: 32:     while (1)
  2808     0E2F  170B               	bsf	11,6	;volatile
  2809     0E30                     l1793:
  2810                           
  2811                           ;main.c: 33:     {
  2812     0E30  178B               	bsf	11,7	;volatile
  2813     0E31                     l100:
  2814     0E31  0008               	return
  2815     0E32                     __end_of_init_config:
  2816                           
  2817                           	psect	text7
  2818     0DDD                     __ptext7:	
  2819 ;; *************** function _init_timer2 *****************
  2820 ;; Defined at:
  2821 ;;		line 3 in file "timers.c"
  2822 ;; Parameters:    Size  Location     Type
  2823 ;;		None
  2824 ;; Auto vars:     Size  Location     Type
  2825 ;;		None
  2826 ;; Return value:  Size  Location     Type
  2827 ;;                  1    wreg      void 
  2828 ;; Registers used:
  2829 ;;		None
  2830 ;; Tracked objects:
  2831 ;;		On entry : 0/0
  2832 ;;		On exit  : 0/0
  2833 ;;		Unchanged: 0/0
  2834 ;; Data sizes:     COMMON   BANK0   BANK1   BANK3   BANK2
  2835 ;;      Params:         0       0       0       0       0
  2836 ;;      Locals:         0       0       0       0       0
  2837 ;;      Temps:          0       0       0       0       0
  2838 ;;      Totals:         0       0       0       0       0
  2839 ;;Total ram usage:        0 bytes
  2840 ;; Hardware stack levels used: 1
  2841 ;; Hardware stack levels required when called: 2
  2842 ;; This function calls:
  2843 ;;		Nothing
  2844 ;; This function is called by:
  2845 ;;		_init_config
  2846 ;; This function uses a non-reentrant model
  2847 ;;
  2848                           
  2849     0DDD                     _init_timer2:	
  2850                           ;psect for function _init_timer2
  2851                           
  2852     0DDD                     l1595:	
  2853                           ;incstack = 0
  2854                           ; Regs used in _init_timer2: []
  2855                           
  2856                           
  2857                           ;timers.c: 6:     T2CKPS0 = 1;
  2858     0DDD  1283               	bcf	3,5	;RP0=0, select bank0
  2859     0DDE  1303               	bcf	3,6	;RP1=0, select bank0
  2860     0DDF  1412               	bsf	18,0	;volatile
  2861                           
  2862                           ;timers.c: 7:     T2CKPS1 = 1;
  2863     0DE0  1492               	bsf	18,1	;volatile
  2864                           
  2865                           ;timers.c: 10:     PR2 = 250;
  2866     0DE1  30FA               	movlw	250
  2867     0DE2  1683               	bsf	3,5	;RP0=1, select bank1
  2868     0DE3  1303               	bcf	3,6	;RP1=0, select bank1
  2869     0DE4  0092               	movwf	18	;volatile
  2870                           
  2871                           ;timers.c: 13:     TMR2IE = 1;
  2872     0DE5  148C               	bsf	12,1	;volatile
  2873                           
  2874                           ;timers.c: 16:     TMR2ON = 0;
  2875     0DE6  1283               	bcf	3,5	;RP0=0, select bank0
  2876     0DE7  1303               	bcf	3,6	;RP1=0, select bank0
  2877     0DE8  1112               	bcf	18,2	;volatile
  2878     0DE9                     l299:
  2879     0DE9  0008               	return
  2880     0DEA                     __end_of_init_timer2:
  2881                           
  2882                           	psect	text8
  2883     07ED                     __ptext8:	
  2884 ;; *************** function _init_matrix_keypad *****************
  2885 ;; Defined at:
  2886 ;;		line 6 in file "matrix_keypad.c"
  2887 ;; Parameters:    Size  Location     Type
  2888 ;;		None
  2889 ;; Auto vars:     Size  Location     Type
  2890 ;;		None
  2891 ;; Return value:  Size  Location     Type
  2892 ;;                  1    wreg      void 
  2893 ;; Registers used:
  2894 ;;		wreg, status,2
  2895 ;; Tracked objects:
  2896 ;;		On entry : 0/0
  2897 ;;		On exit  : 0/0
  2898 ;;		Unchanged: 0/0
  2899 ;; Data sizes:     COMMON   BANK0   BANK1   BANK3   BANK2
  2900 ;;      Params:         0       0       0       0       0
  2901 ;;      Locals:         0       0       0       0       0
  2902 ;;      Temps:          0       0       0       0       0
  2903 ;;      Totals:         0       0       0       0       0
  2904 ;;Total ram usage:        0 bytes
  2905 ;; Hardware stack levels used: 1
  2906 ;; Hardware stack levels required when called: 2
  2907 ;; This function calls:
  2908 ;;		Nothing
  2909 ;; This function is called by:
  2910 ;;		_init_config
  2911 ;; This function uses a non-reentrant model
  2912 ;;
  2913                           
  2914     07ED                     _init_matrix_keypad:	
  2915                           ;psect for function _init_matrix_keypad
  2916                           
  2917     07ED                     l1583:	
  2918                           ;incstack = 0
  2919                           ; Regs used in _init_matrix_keypad: [wreg+status,2]
  2920                           
  2921                           
  2922                           ;matrix_keypad.c: 9:     TRISB = TRISB | 0x07;
  2923     07ED  1683               	bsf	3,5	;RP0=1, select bank1
  2924     07EE  1303               	bcf	3,6	;RP1=0, select bank1
  2925     07EF  0806               	movf	6,w	;volatile
  2926     07F0  3807               	iorlw	7
  2927     07F1  0086               	movwf	6	;volatile
  2928                           
  2929                           ;matrix_keypad.c: 11:     TRISD = TRISD & 0xF0;
  2930     07F2  0808               	movf	8,w	;volatile
  2931     07F3  39F0               	andlw	240
  2932     07F4  0088               	movwf	8	;volatile
  2933     07F5                     l1585:
  2934                           
  2935                           ;matrix_keypad.c: 14:     nRBPU = 0;
  2936     07F5  1381               	bcf	1,7	;volatile
  2937     07F6                     l1587:
  2938                           
  2939                           ;matrix_keypad.c: 17:     RD3 = 1;
  2940     07F6  1283               	bcf	3,5	;RP0=0, select bank0
  2941     07F7  1303               	bcf	3,6	;RP1=0, select bank0
  2942     07F8  1588               	bsf	8,3	;volatile
  2943     07F9                     l1589:
  2944                           
  2945                           ;matrix_keypad.c: 18:     RD2 = 1;
  2946     07F9  1508               	bsf	8,2	;volatile
  2947     07FA                     l1591:
  2948                           
  2949                           ;matrix_keypad.c: 19:     RD1 = 1;
  2950     07FA  1488               	bsf	8,1	;volatile
  2951     07FB                     l1593:
  2952                           
  2953                           ;matrix_keypad.c: 20:     RD0 = 1;
  2954     07FB  1408               	bsf	8,0	;volatile
  2955     07FC                     l150:
  2956     07FC  0008               	return
  2957     07FD                     __end_of_init_matrix_keypad:
  2958                           
  2959                           	psect	text9
  2960     0DD2                     __ptext9:	
  2961 ;; *************** function _init_clcd *****************
  2962 ;; Defined at:
  2963 ;;		line 45 in file "clcd.c"
  2964 ;; Parameters:    Size  Location     Type
  2965 ;;		None
  2966 ;; Auto vars:     Size  Location     Type
  2967 ;;		None
  2968 ;; Return value:  Size  Location     Type
  2969 ;;                  1    wreg      void 
  2970 ;; Registers used:
  2971 ;;		wreg, status,2, status,0, pclath, cstack
  2972 ;; Tracked objects:
  2973 ;;		On entry : 0/0
  2974 ;;		On exit  : 0/0
  2975 ;;		Unchanged: 0/0
  2976 ;; Data sizes:     COMMON   BANK0   BANK1   BANK3   BANK2
  2977 ;;      Params:         0       0       0       0       0
  2978 ;;      Locals:         0       0       0       0       0
  2979 ;;      Temps:          0       0       0       0       0
  2980 ;;      Totals:         0       0       0       0       0
  2981 ;;Total ram usage:        0 bytes
  2982 ;; Hardware stack levels used: 1
  2983 ;; Hardware stack levels required when called: 4
  2984 ;; This function calls:
  2985 ;;		_init_display_controller
  2986 ;; This function is called by:
  2987 ;;		_init_config
  2988 ;; This function uses a non-reentrant model
  2989 ;;
  2990                           
  2991     0DD2                     _init_clcd:	
  2992                           ;psect for function _init_clcd
  2993                           
  2994     0DD2                     l1563:	
  2995                           ;incstack = 0
  2996                           ; Regs used in _init_clcd: [wreg+status,2+status,0+pclath+cstack]
  2997                           
  2998                           
  2999                           ;clcd.c: 48:     TRISD = 0x00;
  3000     0DD2  1683               	bsf	3,5	;RP0=1, select bank1
  3001     0DD3  1303               	bcf	3,6	;RP1=0, select bank1
  3002     0DD4  0188               	clrf	8	;volatile
  3003     0DD5                     l1565:
  3004                           
  3005                           ;clcd.c: 51:     TRISE2 = 0;
  3006     0DD5  1109               	bcf	9,2	;volatile
  3007     0DD6                     l1567:
  3008                           
  3009                           ;clcd.c: 52:     TRISE1 = 0;
  3010     0DD6  1089               	bcf	9,1	;volatile
  3011     0DD7                     l1569:
  3012                           
  3013                           ;clcd.c: 54:     init_display_controller();
  3014     0DD7  120A  118A  276E  120A  158A  	fcall	_init_display_controller
  3015     0DDC                     l23:
  3016     0DDC  0008               	return
  3017     0DDD                     __end_of_init_clcd:
  3018                           
  3019                           	psect	text10
  3020     076E                     __ptext10:	
  3021 ;; *************** function _init_display_controller *****************
  3022 ;; Defined at:
  3023 ;;		line 22 in file "clcd.c"
  3024 ;; Parameters:    Size  Location     Type
  3025 ;;		None
  3026 ;; Auto vars:     Size  Location     Type
  3027 ;;		None
  3028 ;; Return value:  Size  Location     Type
  3029 ;;                  1    wreg      void 
  3030 ;; Registers used:
  3031 ;;		wreg, status,2, status,0, pclath, cstack
  3032 ;; Tracked objects:
  3033 ;;		On entry : 0/0
  3034 ;;		On exit  : 0/0
  3035 ;;		Unchanged: 0/0
  3036 ;; Data sizes:     COMMON   BANK0   BANK1   BANK3   BANK2
  3037 ;;      Params:         0       0       0       0       0
  3038 ;;      Locals:         0       0       0       0       0
  3039 ;;      Temps:          0       2       0       0       0
  3040 ;;      Totals:         0       2       0       0       0
  3041 ;;Total ram usage:        2 bytes
  3042 ;; Hardware stack levels used: 1
  3043 ;; Hardware stack levels required when called: 3
  3044 ;; This function calls:
  3045 ;;		_clcd_write
  3046 ;; This function is called by:
  3047 ;;		_init_clcd
  3048 ;; This function uses a non-reentrant model
  3049 ;;
  3050                           
  3051     076E                     _init_display_controller:	
  3052                           ;psect for function _init_display_controller
  3053                           
  3054     076E                     l1539:	
  3055                           ;incstack = 0
  3056                           ; Regs used in _init_display_controller: [wreg+status,2+status,0+pclath+cstack]
  3057                           
  3058                           
  3059                           ;clcd.c: 25:     _delay((unsigned long)((30)*(20000000/4000.0)));
  3060     076E  30C3               	movlw	195
  3061     076F  1283               	bcf	3,5	;RP0=0, select bank0
  3062     0770  1303               	bcf	3,6	;RP1=0, select bank0
  3063     0771  00A5               	movwf	??_init_display_controller+1
  3064     0772  30CC               	movlw	204
  3065     0773  00A4               	movwf	??_init_display_controller
  3066     0774                     u2447:
  3067     0774  0BA4               	decfsz	??_init_display_controller,f
  3068     0775  2F74               	goto	u2447
  3069     0776  0BA5               	decfsz	??_init_display_controller+1,f
  3070     0777  2F74               	goto	u2447
  3071     0778  0000               	nop
  3072     0779                     l1541:
  3073                           
  3074                           ;clcd.c: 28:     clcd_write(0x30, 0);
  3075     0779  1283               	bcf	3,5	;RP0=0, select bank0
  3076     077A  1303               	bcf	3,6	;RP1=0, select bank0
  3077     077B  01A0               	clrf	clcd_write@mode
  3078     077C  3030               	movlw	48
  3079     077D  120A  158A  26EB  120A  118A  	fcall	_clcd_write
  3080     0782                     l1543:
  3081                           
  3082                           ;clcd.c: 29:     _delay((unsigned long)((4100)*(20000000/4000000.0)));
  3083     0782  301B               	movlw	27
  3084     0783  1283               	bcf	3,5	;RP0=0, select bank0
  3085     0784  1303               	bcf	3,6	;RP1=0, select bank0
  3086     0785  00A5               	movwf	??_init_display_controller+1
  3087     0786  309D               	movlw	157
  3088     0787  00A4               	movwf	??_init_display_controller
  3089     0788                     u2457:
  3090     0788  0BA4               	decfsz	??_init_display_controller,f
  3091     0789  2F88               	goto	u2457
  3092     078A  0BA5               	decfsz	??_init_display_controller+1,f
  3093     078B  2F88               	goto	u2457
  3094     078C  2F8D               	nop2
  3095                           
  3096                           ;clcd.c: 30:     clcd_write(0x30, 0);
  3097     078D  1283               	bcf	3,5	;RP0=0, select bank0
  3098     078E  1303               	bcf	3,6	;RP1=0, select bank0
  3099     078F  01A0               	clrf	clcd_write@mode
  3100     0790  3030               	movlw	48
  3101     0791  120A  158A  26EB  120A  118A  	fcall	_clcd_write
  3102     0796                     l1545:
  3103                           
  3104                           ;clcd.c: 31:     _delay((unsigned long)((100)*(20000000/4000000.0)));
  3105     0796  30A5               	movlw	165
  3106     0797  1283               	bcf	3,5	;RP0=0, select bank0
  3107     0798  1303               	bcf	3,6	;RP1=0, select bank0
  3108     0799  00A4               	movwf	??_init_display_controller
  3109     079A                     u2467:
  3110     079A  0BA4               	decfsz	??_init_display_controller,f
  3111     079B  2F9A               	goto	u2467
  3112     079C  2F9D               	nop2
  3113     079D                     l1547:
  3114                           
  3115                           ;clcd.c: 32:     clcd_write(0x30, 0);
  3116     079D  1283               	bcf	3,5	;RP0=0, select bank0
  3117     079E  1303               	bcf	3,6	;RP1=0, select bank0
  3118     079F  01A0               	clrf	clcd_write@mode
  3119     07A0  3030               	movlw	48
  3120     07A1  120A  158A  26EB  120A  118A  	fcall	_clcd_write
  3121     07A6                     l1549:
  3122                           
  3123                           ;clcd.c: 33:     _delay((unsigned long)((1)*(20000000/4000000.0)));
  3124     07A6  2FA7               	nop2	;2 cycle nop
  3125     07A7  2FA8               	nop2	;2 cycle nop
  3126     07A8  0000               	nop
  3127     07A9                     l1551:
  3128                           
  3129                           ;clcd.c: 35:     clcd_write(0x02, 0);
  3130     07A9  1283               	bcf	3,5	;RP0=0, select bank0
  3131     07AA  1303               	bcf	3,6	;RP1=0, select bank0
  3132     07AB  01A0               	clrf	clcd_write@mode
  3133     07AC  3002               	movlw	2
  3134     07AD  120A  158A  26EB  120A  118A  	fcall	_clcd_write
  3135     07B2                     l1553:
  3136                           
  3137                           ;clcd.c: 36:     _delay((unsigned long)((100)*(20000000/4000000.0)));
  3138     07B2  30A5               	movlw	165
  3139     07B3  1283               	bcf	3,5	;RP0=0, select bank0
  3140     07B4  1303               	bcf	3,6	;RP1=0, select bank0
  3141     07B5  00A4               	movwf	??_init_display_controller
  3142     07B6                     u2477:
  3143     07B6  0BA4               	decfsz	??_init_display_controller,f
  3144     07B7  2FB6               	goto	u2477
  3145     07B8  2FB9               	nop2
  3146                           
  3147                           ;clcd.c: 37:     clcd_write(0x28, 0);
  3148     07B9  1283               	bcf	3,5	;RP0=0, select bank0
  3149     07BA  1303               	bcf	3,6	;RP1=0, select bank0
  3150     07BB  01A0               	clrf	clcd_write@mode
  3151     07BC  3028               	movlw	40
  3152     07BD  120A  158A  26EB  120A  118A  	fcall	_clcd_write
  3153     07C2                     l1555:
  3154                           
  3155                           ;clcd.c: 38:     _delay((unsigned long)((100)*(20000000/4000000.0)));
  3156     07C2  30A5               	movlw	165
  3157     07C3  1283               	bcf	3,5	;RP0=0, select bank0
  3158     07C4  1303               	bcf	3,6	;RP1=0, select bank0
  3159     07C5  00A4               	movwf	??_init_display_controller
  3160     07C6                     u2487:
  3161     07C6  0BA4               	decfsz	??_init_display_controller,f
  3162     07C7  2FC6               	goto	u2487
  3163     07C8  2FC9               	nop2
  3164     07C9                     l1557:
  3165                           
  3166                           ;clcd.c: 39:     clcd_write(0x01, 0);
  3167     07C9  1283               	bcf	3,5	;RP0=0, select bank0
  3168     07CA  1303               	bcf	3,6	;RP1=0, select bank0
  3169     07CB  01A0               	clrf	clcd_write@mode
  3170     07CC  3001               	movlw	1
  3171     07CD  120A  158A  26EB  120A  118A  	fcall	_clcd_write
  3172                           
  3173                           ;clcd.c: 40:     _delay((unsigned long)((500)*(20000000/4000000.0)));
  3174     07D2  3004               	movlw	4
  3175     07D3  1283               	bcf	3,5	;RP0=0, select bank0
  3176     07D4  1303               	bcf	3,6	;RP1=0, select bank0
  3177     07D5  00A5               	movwf	??_init_display_controller+1
  3178     07D6  303D               	movlw	61
  3179     07D7  00A4               	movwf	??_init_display_controller
  3180     07D8                     u2497:
  3181     07D8  0BA4               	decfsz	??_init_display_controller,f
  3182     07D9  2FD8               	goto	u2497
  3183     07DA  0BA5               	decfsz	??_init_display_controller+1,f
  3184     07DB  2FD8               	goto	u2497
  3185     07DC                     l1559:
  3186                           
  3187                           ;clcd.c: 41:     clcd_write(0x0C, 0);
  3188     07DC  1283               	bcf	3,5	;RP0=0, select bank0
  3189     07DD  1303               	bcf	3,6	;RP1=0, select bank0
  3190     07DE  01A0               	clrf	clcd_write@mode
  3191     07DF  300C               	movlw	12
  3192     07E0  120A  158A  26EB  120A  118A  	fcall	_clcd_write
  3193     07E5                     l1561:
  3194                           
  3195                           ;clcd.c: 42:     _delay((unsigned long)((100)*(20000000/4000000.0)));
  3196     07E5  30A5               	movlw	165
  3197     07E6  1283               	bcf	3,5	;RP0=0, select bank0
  3198     07E7  1303               	bcf	3,6	;RP1=0, select bank0
  3199     07E8  00A4               	movwf	??_init_display_controller
  3200     07E9                     u2507:
  3201     07E9  0BA4               	decfsz	??_init_display_controller,f
  3202     07EA  2FE9               	goto	u2507
  3203     07EB  2FEC               	nop2
  3204     07EC                     l20:
  3205     07EC  0008               	return
  3206     07ED                     __end_of_init_display_controller:
  3207                           
  3208                           	psect	text11
  3209     02F1                     __ptext11:	
  3210 ;; *************** function _display_timer *****************
  3211 ;; Defined at:
  3212 ;;		line 184 in file "micro_oven.c"
  3213 ;; Parameters:    Size  Location     Type
  3214 ;;  key             1    wreg     unsigned char 
  3215 ;;  reset_flag      1   14[BANK0 ] unsigned char 
  3216 ;; Auto vars:     Size  Location     Type
  3217 ;;  key             1   18[BANK0 ] unsigned char 
  3218 ;; Return value:  Size  Location     Type
  3219 ;;                  1    wreg      unsigned char 
  3220 ;; Registers used:
  3221 ;;		wreg, fsr0l, fsr0h, status,2, status,0, pclath, btemp1, cstack
  3222 ;; Tracked objects:
  3223 ;;		On entry : 0/0
  3224 ;;		On exit  : 0/0
  3225 ;;		Unchanged: 0/0
  3226 ;; Data sizes:     COMMON   BANK0   BANK1   BANK3   BANK2
  3227 ;;      Params:         0       1       0       0       0
  3228 ;;      Locals:         0       1       0       0       0
  3229 ;;      Temps:          0       3       0       0       0
  3230 ;;      Totals:         0       5       0       0       0
  3231 ;;Total ram usage:        5 bytes
  3232 ;; Hardware stack levels used: 1
  3233 ;; Hardware stack levels required when called: 4
  3234 ;; This function calls:
  3235 ;;		___awdiv
  3236 ;;		___awmod
  3237 ;;		_clcd_print
  3238 ;;		_clcd_putch
  3239 ;;		_clear_screen
  3240 ;; This function is called by:
  3241 ;;		_main
  3242 ;; This function uses a non-reentrant model
  3243 ;;
  3244                           
  3245     02F1                     _display_timer:	
  3246                           ;psect for function _display_timer
  3247                           
  3248                           
  3249                           ;incstack = 0
  3250                           ; Regs used in _display_timer: [wreg-fsr0h+status,2+status,0+pclath+btemp1+cstack]
  3251                           ;display_timer@key stored from wreg
  3252     02F1  1283               	bcf	3,5	;RP0=0, select bank0
  3253     02F2  1303               	bcf	3,6	;RP1=0, select bank0
  3254     02F3  00B2               	movwf	display_timer@key
  3255     02F4                     l2023:
  3256                           
  3257                           ;micro_oven.c: 184: unsigned char display_timer(unsigned char key, unsigned char reset_f
      +                          lag);micro_oven.c: 185: {;micro_oven.c: 186:     static unsigned char pause;;micro_oven.
      +                          c: 187:     if(reset_flag == 0x12)
  3258     02F4  3012               	movlw	18
  3259     02F5  062E               	xorwf	display_timer@reset_flag,w
  3260     02F6  1D03               	btfss	3,2
  3261     02F7  2AF9               	goto	u1641
  3262     02F8  2AFA               	goto	u1640
  3263     02F9                     u1641:
  3264     02F9  2B3B               	goto	l2043
  3265     02FA                     u1640:
  3266     02FA                     l2025:
  3267                           
  3268                           ;micro_oven.c: 188:     {;micro_oven.c: 189:         clear_screen();
  3269     02FA  120A  158A  25C8  120A  118A  	fcall	_clear_screen
  3270     02FF                     l2027:
  3271                           
  3272                           ;micro_oven.c: 190:         key = 0xFF;
  3273     02FF  30FF               	movlw	255
  3274     0300  1283               	bcf	3,5	;RP0=0, select bank0
  3275     0301  1303               	bcf	3,6	;RP1=0, select bank0
  3276     0302  00B2               	movwf	display_timer@key
  3277     0303                     l2029:
  3278                           
  3279                           ;micro_oven.c: 191:         clcd_print("TIME =  ",(0x80 + 1));
  3280     0303  30C0               	movlw	(low ((STR_18-__stringbase)| (0+32768)))& (0+255)
  3281     0304  00A4               	movwf	clcd_print@str
  3282     0305  3080               	movlw	128
  3283     0306  00A5               	movwf	clcd_print@str+1
  3284     0307  3081               	movlw	129
  3285     0308  00A6               	movwf	clcd_print@addr
  3286     0309  120A  158A  2680  120A  118A  	fcall	_clcd_print
  3287     030E                     l2031:
  3288                           
  3289                           ;micro_oven.c: 192:         clcd_print("4.START/RESUME", (0xC0 + 1));
  3290     030E  3076               	movlw	(low ((STR_19-__stringbase)| (0+32768)))& (0+255)
  3291     030F  1283               	bcf	3,5	;RP0=0, select bank0
  3292     0310  1303               	bcf	3,6	;RP1=0, select bank0
  3293     0311  00A4               	movwf	clcd_print@str
  3294     0312  3080               	movlw	128
  3295     0313  00A5               	movwf	clcd_print@str+1
  3296     0314  30C1               	movlw	193
  3297     0315  00A6               	movwf	clcd_print@addr
  3298     0316  120A  158A  2680  120A  118A  	fcall	_clcd_print
  3299     031B                     l2033:
  3300                           
  3301                           ;micro_oven.c: 193:         clcd_print("5.PAUSE", (0x90 + 1));
  3302     031B  30C9               	movlw	(low ((STR_20-__stringbase)| (0+32768)))& (0+255)
  3303     031C  1283               	bcf	3,5	;RP0=0, select bank0
  3304     031D  1303               	bcf	3,6	;RP1=0, select bank0
  3305     031E  00A4               	movwf	clcd_print@str
  3306     031F  3080               	movlw	128
  3307     0320  00A5               	movwf	clcd_print@str+1
  3308     0321  3091               	movlw	145
  3309     0322  00A6               	movwf	clcd_print@addr
  3310     0323  120A  158A  2680  120A  118A  	fcall	_clcd_print
  3311     0328                     l2035:
  3312                           
  3313                           ;micro_oven.c: 194:         clcd_print("6.STOP", (0xD0 + 1));
  3314     0328  30E9               	movlw	(low ((STR_21-__stringbase)| (0+32768)))& (0+255)
  3315     0329  1283               	bcf	3,5	;RP0=0, select bank0
  3316     032A  1303               	bcf	3,6	;RP1=0, select bank0
  3317     032B  00A4               	movwf	clcd_print@str
  3318     032C  3080               	movlw	128
  3319     032D  00A5               	movwf	clcd_print@str+1
  3320     032E  30D1               	movlw	209
  3321     032F  00A6               	movwf	clcd_print@addr
  3322     0330  120A  158A  2680  120A  118A  	fcall	_clcd_print
  3323     0335                     l2037:
  3324                           
  3325                           ;micro_oven.c: 196:         countdown_flag = 1;
  3326     0335  3001               	movlw	1
  3327     0336  1283               	bcf	3,5	;RP0=0, select bank0
  3328     0337  1303               	bcf	3,6	;RP1=0, select bank0
  3329     0338  00C1               	movwf	_countdown_flag
  3330     0339                     l2039:
  3331                           
  3332                           ;micro_oven.c: 198:         TMR2ON = 1;
  3333     0339  1512               	bsf	18,2	;volatile
  3334     033A                     l2041:
  3335                           
  3336                           ;micro_oven.c: 199:         RC2 = 1;
  3337     033A  1507               	bsf	7,2	;volatile
  3338     033B                     l2043:
  3339                           
  3340                           ;micro_oven.c: 202:     if(sec == 0 && min == 0)
  3341     033B  083B               	movf	_sec,w
  3342     033C  043C               	iorwf	_sec+1,w
  3343     033D  1D03               	btfss	3,2
  3344     033E  2B40               	goto	u1651
  3345     033F  2B41               	goto	u1650
  3346     0340                     u1651:
  3347     0340  2B7F               	goto	l2069
  3348     0341                     u1650:
  3349     0341                     l2045:
  3350     0341  0839               	movf	_min,w
  3351     0342  043A               	iorwf	_min+1,w
  3352     0343  1D03               	btfss	3,2
  3353     0344  2B46               	goto	u1661
  3354     0345  2B47               	goto	u1660
  3355     0346                     u1661:
  3356     0346  2B7F               	goto	l2069
  3357     0347                     u1660:
  3358     0347                     l2047:
  3359                           
  3360                           ;micro_oven.c: 203:     {;micro_oven.c: 204:         clear_screen();
  3361     0347  120A  158A  25C8  120A  118A  	fcall	_clear_screen
  3362     034C                     l2049:
  3363                           
  3364                           ;micro_oven.c: 205:         TMR2ON = 0;
  3365     034C  1283               	bcf	3,5	;RP0=0, select bank0
  3366     034D  1303               	bcf	3,6	;RP1=0, select bank0
  3367     034E  1112               	bcf	18,2	;volatile
  3368     034F                     l2051:
  3369                           
  3370                           ;micro_oven.c: 206:         RC2 = 0;
  3371     034F  1107               	bcf	7,2	;volatile
  3372     0350                     l2053:
  3373                           
  3374                           ;micro_oven.c: 207:         countdown_flag = 0;
  3375     0350  01C1               	clrf	_countdown_flag
  3376     0351                     l2055:
  3377                           
  3378                           ;micro_oven.c: 208:         clcd_print("Time UP!!!", (0xC0 + 4));
  3379     0351  30AB               	movlw	(low ((STR_22-__stringbase)| (0+32768)))& (0+255)
  3380     0352  00A4               	movwf	clcd_print@str
  3381     0353  3080               	movlw	128
  3382     0354  00A5               	movwf	clcd_print@str+1
  3383     0355  30C4               	movlw	196
  3384     0356  00A6               	movwf	clcd_print@addr
  3385     0357  120A  158A  2680  120A  118A  	fcall	_clcd_print
  3386     035C                     l2057:
  3387                           
  3388                           ;micro_oven.c: 209:         clcd_print("Enjoy your meal", (0x90 + 0));
  3389     035C  3066               	movlw	(low ((STR_23-__stringbase)| (0+32768)))& (0+255)
  3390     035D  1283               	bcf	3,5	;RP0=0, select bank0
  3391     035E  1303               	bcf	3,6	;RP1=0, select bank0
  3392     035F  00A4               	movwf	clcd_print@str
  3393     0360  3080               	movlw	128
  3394     0361  00A5               	movwf	clcd_print@str+1
  3395     0362  3090               	movlw	144
  3396     0363  00A6               	movwf	clcd_print@addr
  3397     0364  120A  158A  2680  120A  118A  	fcall	_clcd_print
  3398     0369                     l2059:
  3399                           
  3400                           ;micro_oven.c: 211:         RC1 = 1;
  3401     0369  1283               	bcf	3,5	;RP0=0, select bank0
  3402     036A  1303               	bcf	3,6	;RP1=0, select bank0
  3403     036B  1487               	bsf	7,1	;volatile
  3404     036C                     l2061:
  3405                           
  3406                           ;micro_oven.c: 213:         _delay((unsigned long)((2500)*(20000000/4000.0)));
  3407     036C  3040               	movlw	64
  3408     036D  1283               	bcf	3,5	;RP0=0, select bank0
  3409     036E  1303               	bcf	3,6	;RP1=0, select bank0
  3410     036F  00B1               	movwf	??_display_timer+2
  3411     0370  306A               	movlw	106
  3412     0371  00B0               	movwf	??_display_timer+1
  3413     0372  3097               	movlw	151
  3414     0373  00AF               	movwf	??_display_timer
  3415     0374                     u2517:
  3416     0374  0BAF               	decfsz	??_display_timer,f
  3417     0375  2B74               	goto	u2517
  3418     0376  0BB0               	decfsz	??_display_timer+1,f
  3419     0377  2B74               	goto	u2517
  3420     0378  0BB1               	decfsz	??_display_timer+2,f
  3421     0379  2B74               	goto	u2517
  3422     037A                     l2063:
  3423                           
  3424                           ;micro_oven.c: 214:         RC1 = 0;
  3425     037A  1283               	bcf	3,5	;RP0=0, select bank0
  3426     037B  1303               	bcf	3,6	;RP1=0, select bank0
  3427     037C  1087               	bcf	7,1	;volatile
  3428     037D                     l2065:
  3429                           
  3430                           ;micro_oven.c: 215:         return 0x01;
  3431     037D  3001               	movlw	1
  3432     037E  2C20               	goto	l281
  3433     037F                     l2069:
  3434                           
  3435                           ;micro_oven.c: 218:     if(key == 4 && pause == 0)
  3436     037F  3004               	movlw	4
  3437     0380  0632               	xorwf	display_timer@key,w
  3438     0381  1D03               	btfss	3,2
  3439     0382  2B84               	goto	u1671
  3440     0383  2B85               	goto	u1670
  3441     0384                     u1671:
  3442     0384  2B93               	goto	l2075
  3443     0385                     u1670:
  3444     0385                     l2071:
  3445     0385  083D               	movf	display_timer@pause,w
  3446     0386  1D03               	btfss	3,2
  3447     0387  2B89               	goto	u1681
  3448     0388  2B8A               	goto	u1680
  3449     0389                     u1681:
  3450     0389  2B93               	goto	l2075
  3451     038A                     u1680:
  3452     038A                     l2073:
  3453                           
  3454                           ;micro_oven.c: 219:     {;micro_oven.c: 220:         sec = sec + 30;
  3455     038A  083B               	movf	_sec,w
  3456     038B  3E1E               	addlw	30
  3457     038C  00BB               	movwf	_sec
  3458     038D  083C               	movf	_sec+1,w
  3459     038E  1803               	skipnc
  3460     038F  3E01               	addlw	1
  3461     0390  3E00               	addlw	0
  3462     0391  00BC               	movwf	_sec+1
  3463                           
  3464                           ;micro_oven.c: 221:     }
  3465     0392  2BA0               	goto	l2081
  3466     0393                     l2075:
  3467     0393  3004               	movlw	4
  3468     0394  0632               	xorwf	display_timer@key,w
  3469     0395  1D03               	btfss	3,2
  3470     0396  2B98               	goto	u1691
  3471     0397  2B99               	goto	u1690
  3472     0398                     u1691:
  3473     0398  2BA0               	goto	l2081
  3474     0399                     u1690:
  3475     0399                     l2077:
  3476     0399  033D               	decf	display_timer@pause,w
  3477     039A  1D03               	btfss	3,2
  3478     039B  2B9D               	goto	u1701
  3479     039C  2B9E               	goto	u1700
  3480     039D                     u1701:
  3481     039D  2BA0               	goto	l2081
  3482     039E                     u1700:
  3483     039E                     l2079:
  3484                           
  3485                           ;micro_oven.c: 223:     {;micro_oven.c: 224:         TMR2ON = 1;
  3486     039E  1512               	bsf	18,2	;volatile
  3487                           
  3488                           ;micro_oven.c: 225:         RC2 = 1;
  3489     039F  1507               	bsf	7,2	;volatile
  3490     03A0                     l2081:
  3491                           
  3492                           ;micro_oven.c: 227:     if(key == 5)
  3493     03A0  3005               	movlw	5
  3494     03A1  0632               	xorwf	display_timer@key,w
  3495     03A2  1D03               	btfss	3,2
  3496     03A3  2BA5               	goto	u1711
  3497     03A4  2BA6               	goto	u1710
  3498     03A5                     u1711:
  3499     03A5  2BAA               	goto	l2085
  3500     03A6                     u1710:
  3501     03A6                     l2083:
  3502                           
  3503                           ;micro_oven.c: 228:     {;micro_oven.c: 229:         pause = 1;
  3504     03A6  3001               	movlw	1
  3505     03A7  00BD               	movwf	display_timer@pause
  3506                           
  3507                           ;micro_oven.c: 230:         RC2 = 0;
  3508     03A8  1107               	bcf	7,2	;volatile
  3509                           
  3510                           ;micro_oven.c: 231:         TMR2ON = 0;
  3511     03A9  1112               	bcf	18,2	;volatile
  3512     03AA                     l2085:
  3513                           
  3514                           ;micro_oven.c: 233:     if(key == 6)
  3515     03AA  3006               	movlw	6
  3516     03AB  0632               	xorwf	display_timer@key,w
  3517     03AC  1D03               	btfss	3,2
  3518     03AD  2BAF               	goto	u1721
  3519     03AE  2BB0               	goto	u1720
  3520     03AF                     u1721:
  3521     03AF  2BB4               	goto	l2095
  3522     03B0                     u1720:
  3523     03B0                     l2087:
  3524                           
  3525                           ;micro_oven.c: 234:     {;micro_oven.c: 235:         TMR2ON = 0;
  3526     03B0  1112               	bcf	18,2	;volatile
  3527                           
  3528                           ;micro_oven.c: 236:         RC2 = 0;
  3529     03B1  1107               	bcf	7,2	;volatile
  3530     03B2                     l2089:
  3531                           
  3532                           ;micro_oven.c: 237:         countdown_flag = 0;
  3533     03B2  01C1               	clrf	_countdown_flag
  3534     03B3  2B7D               	goto	l2065
  3535     03B4                     l2095:
  3536                           
  3537                           ;micro_oven.c: 241:     Mins[0] = min / 10 + '0';
  3538     03B4  300A               	movlw	10
  3539     03B5  00A0               	movwf	___awdiv@divisor
  3540     03B6  3000               	movlw	0
  3541     03B7  00A1               	movwf	___awdiv@divisor+1
  3542     03B8  083A               	movf	_min+1,w
  3543     03B9  00A3               	movwf	___awdiv@dividend+1
  3544     03BA  0839               	movf	_min,w
  3545     03BB  00A2               	movwf	___awdiv@dividend
  3546     03BC  120A  158A  2729  120A  118A  	fcall	___awdiv
  3547     03C1  1283               	bcf	3,5	;RP0=0, select bank0
  3548     03C2  1303               	bcf	3,6	;RP1=0, select bank0
  3549     03C3  0820               	movf	?___awdiv,w
  3550     03C4  3E30               	addlw	48
  3551     03C5  00CA               	movwf	_Mins
  3552                           
  3553                           ;micro_oven.c: 242:     Mins[1] = min % 10 + '0';
  3554     03C6  300A               	movlw	10
  3555     03C7  00A8               	movwf	___awmod@divisor
  3556     03C8  3000               	movlw	0
  3557     03C9  00A9               	movwf	___awmod@divisor+1
  3558     03CA  083A               	movf	_min+1,w
  3559     03CB  00AB               	movwf	___awmod@dividend+1
  3560     03CC  0839               	movf	_min,w
  3561     03CD  00AA               	movwf	___awmod@dividend
  3562     03CE  120A  118A  249F  120A  118A  	fcall	___awmod
  3563     03D3  1283               	bcf	3,5	;RP0=0, select bank0
  3564     03D4  1303               	bcf	3,6	;RP1=0, select bank0
  3565     03D5  0828               	movf	?___awmod,w
  3566     03D6  3E30               	addlw	48
  3567     03D7  00CB               	movwf	_Mins+1
  3568     03D8                     l2097:
  3569                           
  3570                           ;micro_oven.c: 243:     Mins[2] = '\0';
  3571     03D8  01CC               	clrf	_Mins+2
  3572     03D9                     l2099:
  3573                           
  3574                           ;micro_oven.c: 245:     Secs[0] = sec / 10 + '0';
  3575     03D9  300A               	movlw	10
  3576     03DA  00A0               	movwf	___awdiv@divisor
  3577     03DB  3000               	movlw	0
  3578     03DC  00A1               	movwf	___awdiv@divisor+1
  3579     03DD  083C               	movf	_sec+1,w
  3580     03DE  00A3               	movwf	___awdiv@dividend+1
  3581     03DF  083B               	movf	_sec,w
  3582     03E0  00A2               	movwf	___awdiv@dividend
  3583     03E1  120A  158A  2729  120A  118A  	fcall	___awdiv
  3584     03E6  1283               	bcf	3,5	;RP0=0, select bank0
  3585     03E7  1303               	bcf	3,6	;RP1=0, select bank0
  3586     03E8  0820               	movf	?___awdiv,w
  3587     03E9  3E30               	addlw	48
  3588     03EA  00C7               	movwf	_Secs
  3589     03EB                     l2101:
  3590                           
  3591                           ;micro_oven.c: 246:     Secs[1] = sec % 10 + '0';
  3592     03EB  300A               	movlw	10
  3593     03EC  00A8               	movwf	___awmod@divisor
  3594     03ED  3000               	movlw	0
  3595     03EE  00A9               	movwf	___awmod@divisor+1
  3596     03EF  083C               	movf	_sec+1,w
  3597     03F0  00AB               	movwf	___awmod@dividend+1
  3598     03F1  083B               	movf	_sec,w
  3599     03F2  00AA               	movwf	___awmod@dividend
  3600     03F3  120A  118A  249F  120A  118A  	fcall	___awmod
  3601     03F8  1283               	bcf	3,5	;RP0=0, select bank0
  3602     03F9  1303               	bcf	3,6	;RP1=0, select bank0
  3603     03FA  0828               	movf	?___awmod,w
  3604     03FB  3E30               	addlw	48
  3605     03FC  00C8               	movwf	_Secs+1
  3606     03FD                     l2103:
  3607                           
  3608                           ;micro_oven.c: 248:     clcd_print(Mins, (0x80 + 9));
  3609     03FD  304A               	movlw	(low (_Mins| 0))& (0+255)
  3610     03FE  00A4               	movwf	clcd_print@str
  3611     03FF  3000               	movlw	0
  3612     0400  00A5               	movwf	clcd_print@str+1
  3613     0401  3089               	movlw	137
  3614     0402  00A6               	movwf	clcd_print@addr
  3615     0403  120A  158A  2680  120A  118A  	fcall	_clcd_print
  3616     0408                     l2105:
  3617                           
  3618                           ;micro_oven.c: 249:     clcd_putch(':', (0x80 + 11));
  3619     0408  308B               	movlw	139
  3620     0409  1283               	bcf	3,5	;RP0=0, select bank0
  3621     040A  1303               	bcf	3,6	;RP1=0, select bank0
  3622     040B  00A4               	movwf	clcd_putch@addr
  3623     040C  303A               	movlw	58
  3624     040D  120A  158A  25FF  120A  118A  	fcall	_clcd_putch
  3625     0412                     l2107:
  3626                           
  3627                           ;micro_oven.c: 250:     clcd_print(Secs, (0x80 + 12));
  3628     0412  3047               	movlw	(low (_Secs| 0))& (0+255)
  3629     0413  1283               	bcf	3,5	;RP0=0, select bank0
  3630     0414  1303               	bcf	3,6	;RP1=0, select bank0
  3631     0415  00A4               	movwf	clcd_print@str
  3632     0416  3000               	movlw	0
  3633     0417  00A5               	movwf	clcd_print@str+1
  3634     0418  308C               	movlw	140
  3635     0419  00A6               	movwf	clcd_print@addr
  3636     041A  120A  158A  2680  120A  118A  	fcall	_clcd_print
  3637     041F                     l2109:
  3638                           
  3639                           ;micro_oven.c: 252:     return 0x14;
  3640     041F  3014               	movlw	20
  3641     0420                     l281:
  3642     0420  0008               	return
  3643     0421                     __end_of_display_timer:
  3644                           
  3645                           	psect	text12
  3646     0DFF                     __ptext12:	
  3647 ;; *************** function _clcd_putch *****************
  3648 ;; Defined at:
  3649 ;;		line 57 in file "clcd.c"
  3650 ;; Parameters:    Size  Location     Type
  3651 ;;  data            1    wreg     const unsigned char 
  3652 ;;  addr            1    4[BANK0 ] unsigned char 
  3653 ;; Auto vars:     Size  Location     Type
  3654 ;;  data            1    5[BANK0 ] const unsigned char 
  3655 ;; Return value:  Size  Location     Type
  3656 ;;                  1    wreg      void 
  3657 ;; Registers used:
  3658 ;;		wreg, status,2, status,0, pclath, cstack
  3659 ;; Tracked objects:
  3660 ;;		On entry : 0/0
  3661 ;;		On exit  : 0/0
  3662 ;;		Unchanged: 0/0
  3663 ;; Data sizes:     COMMON   BANK0   BANK1   BANK3   BANK2
  3664 ;;      Params:         0       1       0       0       0
  3665 ;;      Locals:         0       1       0       0       0
  3666 ;;      Temps:          0       0       0       0       0
  3667 ;;      Totals:         0       2       0       0       0
  3668 ;;Total ram usage:        2 bytes
  3669 ;; Hardware stack levels used: 1
  3670 ;; Hardware stack levels required when called: 2
  3671 ;; This function calls:
  3672 ;;		_clcd_write
  3673 ;; This function is called by:
  3674 ;;		_power_on
  3675 ;;		_display_timer
  3676 ;; This function uses a non-reentrant model
  3677 ;;
  3678                           
  3679     0DFF                     _clcd_putch:	
  3680                           ;psect for function _clcd_putch
  3681                           
  3682                           
  3683                           ;incstack = 0
  3684                           ; Regs used in _clcd_putch: [wreg+status,2+status,0+pclath+cstack]
  3685                           ;clcd_putch@data stored from wreg
  3686     0DFF  1283               	bcf	3,5	;RP0=0, select bank0
  3687     0E00  1303               	bcf	3,6	;RP1=0, select bank0
  3688     0E01  00A5               	movwf	clcd_putch@data
  3689     0E02                     l1571:
  3690                           
  3691                           ;clcd.c: 57: void clcd_putch(const char data, unsigned char addr);clcd.c: 58: {;clcd.c: 
      +                          59:     clcd_write(addr, 0);
  3692     0E02  01A0               	clrf	clcd_write@mode
  3693     0E03  0824               	movf	clcd_putch@addr,w
  3694     0E04  120A  158A  26EB  120A  158A  	fcall	_clcd_write
  3695                           
  3696                           ;clcd.c: 60:     clcd_write(data, 1);
  3697     0E09  1283               	bcf	3,5	;RP0=0, select bank0
  3698     0E0A  1303               	bcf	3,6	;RP1=0, select bank0
  3699     0E0B  01A0               	clrf	clcd_write@mode
  3700     0E0C  0AA0               	incf	clcd_write@mode,f
  3701     0E0D  0825               	movf	clcd_putch@data,w
  3702     0E0E  120A  158A  26EB  120A  158A  	fcall	_clcd_write
  3703     0E13                     l26:
  3704     0E13  0008               	return
  3705     0E14                     __end_of_clcd_putch:
  3706                           
  3707                           	psect	text13
  3708     019C                     __ptext13:	
  3709 ;; *************** function _convection *****************
  3710 ;; Defined at:
  3711 ;;		line 109 in file "micro_oven.c"
  3712 ;; Parameters:    Size  Location     Type
  3713 ;;  key             1    wreg     unsigned char 
  3714 ;;  reset_flag      1   14[BANK0 ] unsigned char 
  3715 ;; Auto vars:     Size  Location     Type
  3716 ;;  key             1   17[BANK0 ] unsigned char 
  3717 ;; Return value:  Size  Location     Type
  3718 ;;                  1    wreg      unsigned char 
  3719 ;; Registers used:
  3720 ;;		wreg, fsr0l, fsr0h, status,2, status,0, pclath, btemp1, cstack
  3721 ;; Tracked objects:
  3722 ;;		On entry : 0/0
  3723 ;;		On exit  : 0/0
  3724 ;;		Unchanged: 0/0
  3725 ;; Data sizes:     COMMON   BANK0   BANK1   BANK3   BANK2
  3726 ;;      Params:         0       1       0       0       0
  3727 ;;      Locals:         0       1       0       0       0
  3728 ;;      Temps:          0       2       0       0       0
  3729 ;;      Totals:         0       4       0       0       0
  3730 ;;Total ram usage:        4 bytes
  3731 ;; Hardware stack levels used: 1
  3732 ;; Hardware stack levels required when called: 3
  3733 ;; This function calls:
  3734 ;;		___awdiv
  3735 ;;		___awmod
  3736 ;;		___bmul
  3737 ;;		_clcd_print
  3738 ;;		_clear_screen
  3739 ;; This function is called by:
  3740 ;;		_main
  3741 ;; This function uses a non-reentrant model
  3742 ;;
  3743                           
  3744     019C                     _convection:	
  3745                           ;psect for function _convection
  3746                           
  3747                           
  3748                           ;incstack = 0
  3749                           ; Regs used in _convection: [wreg-fsr0h+status,2+status,0+pclath+btemp1+cstack]
  3750                           ;convection@key stored from wreg
  3751     019C  1283               	bcf	3,5	;RP0=0, select bank0
  3752     019D  1303               	bcf	3,6	;RP1=0, select bank0
  3753     019E  00B1               	movwf	convection@key
  3754     019F                     l1931:
  3755                           
  3756                           ;micro_oven.c: 109: unsigned char convection(unsigned char key, unsigned char reset_flag
      +                          );micro_oven.c: 110: {;micro_oven.c: 111:     static unsigned char temp = 0;;micro_oven.
      +                          c: 112:     static unsigned char set_temp_step = 1;;micro_oven.c: 114:     if (reset_fla
      +                          g == 0x11)
  3757     019F  3011               	movlw	17
  3758     01A0  062E               	xorwf	convection@reset_flag,w
  3759     01A1  1D03               	btfss	3,2
  3760     01A2  29A4               	goto	u1521
  3761     01A3  29A5               	goto	u1520
  3762     01A4                     u1521:
  3763     01A4  29DA               	goto	l1953
  3764     01A5                     u1520:
  3765     01A5                     l1933:
  3766                           
  3767                           ;micro_oven.c: 115:     {;micro_oven.c: 116:         clear_screen();
  3768     01A5  120A  158A  25C8  120A  118A  	fcall	_clear_screen
  3769     01AA                     l1935:
  3770                           
  3771                           ;micro_oven.c: 117:         clcd_print("SET TEMP (^C)  ", (0x80 + 0));
  3772     01AA  3056               	movlw	(low ((STR_12-__stringbase)| (0+32768)))& (0+255)
  3773     01AB  1283               	bcf	3,5	;RP0=0, select bank0
  3774     01AC  1303               	bcf	3,6	;RP1=0, select bank0
  3775     01AD  00A4               	movwf	clcd_print@str
  3776     01AE  3080               	movlw	128
  3777     01AF  00A5               	movwf	clcd_print@str+1
  3778     01B0  3080               	movlw	128
  3779     01B1  00A6               	movwf	clcd_print@addr
  3780     01B2  120A  158A  2680  120A  118A  	fcall	_clcd_print
  3781     01B7                     l1937:
  3782                           
  3783                           ;micro_oven.c: 118:         clcd_print("TEMP: 000", (0xC0 + 0));
  3784     01B7  30B6               	movlw	(low ((STR_13-__stringbase)| (0+32768)))& (0+255)
  3785     01B8  1283               	bcf	3,5	;RP0=0, select bank0
  3786     01B9  1303               	bcf	3,6	;RP1=0, select bank0
  3787     01BA  00A4               	movwf	clcd_print@str
  3788     01BB  3080               	movlw	128
  3789     01BC  00A5               	movwf	clcd_print@str+1
  3790     01BD  30C0               	movlw	192
  3791     01BE  00A6               	movwf	clcd_print@addr
  3792     01BF  120A  158A  2680  120A  118A  	fcall	_clcd_print
  3793     01C4                     l1939:
  3794                           
  3795                           ;micro_oven.c: 119:         clcd_print("*:CLEAR  #:ENTER", (0xD0 + 0));
  3796     01C4  3045               	movlw	(low ((STR_9-__stringbase)| (0+32768)))& (0+255)
  3797     01C5  1283               	bcf	3,5	;RP0=0, select bank0
  3798     01C6  1303               	bcf	3,6	;RP1=0, select bank0
  3799     01C7  00A4               	movwf	clcd_print@str
  3800     01C8  3080               	movlw	128
  3801     01C9  00A5               	movwf	clcd_print@str+1
  3802     01CA  30D0               	movlw	208
  3803     01CB  00A6               	movwf	clcd_print@addr
  3804     01CC  120A  158A  2680  120A  118A  	fcall	_clcd_print
  3805     01D1                     l1941:
  3806                           
  3807                           ;micro_oven.c: 121:         TMR2ON = 1;
  3808     01D1  1283               	bcf	3,5	;RP0=0, select bank0
  3809     01D2  1303               	bcf	3,6	;RP1=0, select bank0
  3810     01D3  1512               	bsf	18,2	;volatile
  3811     01D4                     l1943:
  3812                           
  3813                           ;micro_oven.c: 123:         temp = 0;
  3814     01D4  01BE               	clrf	convection@temp
  3815     01D5                     l1945:
  3816                           
  3817                           ;micro_oven.c: 124:         key_count = 0;
  3818     01D5  01C0               	clrf	_key_count
  3819     01D6                     l1947:
  3820                           
  3821                           ;micro_oven.c: 125:         set_temp_step = 1;
  3822     01D6  3001               	movlw	1
  3823     01D7  00CD               	movwf	convection@set_temp_step
  3824     01D8                     l1949:
  3825                           
  3826                           ;micro_oven.c: 126:         return 0x14;
  3827     01D8  3014               	movlw	20
  3828     01D9  2AF0               	goto	l261
  3829     01DA                     l1953:
  3830                           
  3831                           ;micro_oven.c: 129:     if (set_temp_step == 1)
  3832     01DA  034D               	decf	convection@set_temp_step,w
  3833     01DB  1D03               	btfss	3,2
  3834     01DC  29DE               	goto	u1531
  3835     01DD  29DF               	goto	u1530
  3836     01DE                     u1531:
  3837     01DE  2A9D               	goto	l2003
  3838     01DF                     u1530:
  3839     01DF                     l1955:
  3840                           
  3841                           ;micro_oven.c: 130:     {;micro_oven.c: 131:         if (key != 0xFF && key != '*' && ke
      +                          y != '#')
  3842     01DF  0A31               	incf	convection@key,w
  3843     01E0  1903               	btfsc	3,2
  3844     01E1  29E3               	goto	u1541
  3845     01E2  29E4               	goto	u1540
  3846     01E3                     u1541:
  3847     01E3  2A05               	goto	l1967
  3848     01E4                     u1540:
  3849     01E4                     l1957:
  3850     01E4  302A               	movlw	42
  3851     01E5  0631               	xorwf	convection@key,w
  3852     01E6  1903               	btfsc	3,2
  3853     01E7  29E9               	goto	u1551
  3854     01E8  29EA               	goto	u1550
  3855     01E9                     u1551:
  3856     01E9  2A05               	goto	l1967
  3857     01EA                     u1550:
  3858     01EA                     l1959:
  3859     01EA  3023               	movlw	35
  3860     01EB  0631               	xorwf	convection@key,w
  3861     01EC  1903               	btfsc	3,2
  3862     01ED  29EF               	goto	u1561
  3863     01EE  29F0               	goto	u1560
  3864     01EF                     u1561:
  3865     01EF  2A05               	goto	l1967
  3866     01F0                     u1560:
  3867     01F0                     l1961:
  3868                           
  3869                           ;micro_oven.c: 132:         {;micro_oven.c: 133:             if (key_count < 3)
  3870     01F0  3003               	movlw	3
  3871     01F1  0240               	subwf	_key_count,w
  3872     01F2  1803               	skipnc
  3873     01F3  29F5               	goto	u1571
  3874     01F4  29F6               	goto	u1570
  3875     01F5                     u1571:
  3876     01F5  2A2F               	goto	l1989
  3877     01F6                     u1570:
  3878     01F6                     l1963:
  3879                           
  3880                           ;micro_oven.c: 134:             {;micro_oven.c: 135:                 temp = (temp * 10) 
      +                          + key;
  3881     01F6  300A               	movlw	10
  3882     01F7  00A0               	movwf	___bmul@multiplicand
  3883     01F8  083E               	movf	convection@temp,w
  3884     01F9  120A  158A  25EA  120A  118A  	fcall	___bmul
  3885     01FE  1283               	bcf	3,5	;RP0=0, select bank0
  3886     01FF  1303               	bcf	3,6	;RP1=0, select bank0
  3887     0200  0731               	addwf	convection@key,w
  3888     0201  00BE               	movwf	convection@temp
  3889     0202                     l1965:
  3890                           
  3891                           ;micro_oven.c: 136:                 key_count++;
  3892     0202  3001               	movlw	1
  3893     0203  07C0               	addwf	_key_count,f
  3894     0204  2A2F               	goto	l1989
  3895     0205                     l1967:
  3896     0205  302A               	movlw	42
  3897     0206  0631               	xorwf	convection@key,w
  3898     0207  1D03               	btfss	3,2
  3899     0208  2A0A               	goto	u1581
  3900     0209  2A0B               	goto	u1580
  3901     020A                     u1581:
  3902     020A  2A0E               	goto	l1971
  3903     020B                     u1580:
  3904     020B                     l1969:
  3905                           
  3906                           ;micro_oven.c: 140:         {;micro_oven.c: 141:             temp = 0;
  3907     020B  01BE               	clrf	convection@temp
  3908                           
  3909                           ;micro_oven.c: 142:             key_count = 0;
  3910     020C  01C0               	clrf	_key_count
  3911                           
  3912                           ;micro_oven.c: 143:         }
  3913     020D  2A2F               	goto	l1989
  3914     020E                     l1971:
  3915     020E  3023               	movlw	35
  3916     020F  0631               	xorwf	convection@key,w
  3917     0210  1D03               	btfss	3,2
  3918     0211  2A13               	goto	u1591
  3919     0212  2A14               	goto	u1590
  3920     0213                     u1591:
  3921     0213  2A2F               	goto	l1989
  3922     0214                     u1590:
  3923     0214                     l1973:
  3924                           
  3925                           ;micro_oven.c: 145:         {;micro_oven.c: 146:             if (temp > 250) temp = 250;
  3926     0214  30FB               	movlw	251
  3927     0215  023E               	subwf	convection@temp,w
  3928     0216  1C03               	skipc
  3929     0217  2A19               	goto	u1601
  3930     0218  2A1A               	goto	u1600
  3931     0219                     u1601:
  3932     0219  2A1C               	goto	l1977
  3933     021A                     u1600:
  3934     021A                     l1975:
  3935     021A  30FA               	movlw	250
  3936     021B  00BE               	movwf	convection@temp
  3937     021C                     l1977:
  3938                           
  3939                           ;micro_oven.c: 147:             if (temp == 0) temp = 180;
  3940     021C  083E               	movf	convection@temp,w
  3941     021D  1D03               	btfss	3,2
  3942     021E  2A20               	goto	u1611
  3943     021F  2A21               	goto	u1610
  3944     0220                     u1611:
  3945     0220  2A23               	goto	l1981
  3946     0221                     u1610:
  3947     0221                     l1979:
  3948     0221  30B4               	movlw	180
  3949     0222  00BE               	movwf	convection@temp
  3950     0223                     l1981:
  3951                           
  3952                           ;micro_oven.c: 149:             set_temp_step = 0;
  3953     0223  01CD               	clrf	convection@set_temp_step
  3954     0224                     l1983:
  3955                           
  3956                           ;micro_oven.c: 150:             sec = 60;
  3957     0224  303C               	movlw	60
  3958     0225  00BB               	movwf	_sec
  3959     0226  3000               	movlw	0
  3960     0227  00BC               	movwf	_sec+1
  3961     0228                     l1985:
  3962                           
  3963                           ;micro_oven.c: 151:             countdown_flag = 1;
  3964     0228  3001               	movlw	1
  3965     0229  00C1               	movwf	_countdown_flag
  3966     022A                     l1987:
  3967                           
  3968                           ;micro_oven.c: 152:             clear_screen();
  3969     022A  120A  158A  25C8  120A  118A  	fcall	_clear_screen
  3970     022F                     l1989:
  3971                           
  3972                           ;micro_oven.c: 155:         Temp[0] = (temp / 100) + '0';
  3973     022F  3064               	movlw	100
  3974     0230  1283               	bcf	3,5	;RP0=0, select bank0
  3975     0231  1303               	bcf	3,6	;RP1=0, select bank0
  3976     0232  00A0               	movwf	___awdiv@divisor
  3977     0233  3000               	movlw	0
  3978     0234  00A1               	movwf	___awdiv@divisor+1
  3979     0235  083E               	movf	convection@temp,w
  3980     0236  00AF               	movwf	??_convection
  3981     0237  01B0               	clrf	??_convection+1
  3982     0238  082F               	movf	??_convection,w
  3983     0239  00A2               	movwf	___awdiv@dividend
  3984     023A  0830               	movf	??_convection+1,w
  3985     023B  00A3               	movwf	___awdiv@dividend+1
  3986     023C  120A  158A  2729  120A  118A  	fcall	___awdiv
  3987     0241  1283               	bcf	3,5	;RP0=0, select bank0
  3988     0242  1303               	bcf	3,6	;RP1=0, select bank0
  3989     0243  0820               	movf	?___awdiv,w
  3990     0244  3E30               	addlw	48
  3991     0245  00C3               	movwf	_Temp
  3992     0246                     l1991:
  3993                           
  3994                           ;micro_oven.c: 156:         Temp[1] = ((temp / 10) % 10) + '0';
  3995     0246  300A               	movlw	10
  3996     0247  00A8               	movwf	___awmod@divisor
  3997     0248  3000               	movlw	0
  3998     0249  00A9               	movwf	___awmod@divisor+1
  3999     024A  300A               	movlw	10
  4000     024B  00A0               	movwf	___awdiv@divisor
  4001     024C  3000               	movlw	0
  4002     024D  00A1               	movwf	___awdiv@divisor+1
  4003     024E  083E               	movf	convection@temp,w
  4004     024F  00AF               	movwf	??_convection
  4005     0250  01B0               	clrf	??_convection+1
  4006     0251  082F               	movf	??_convection,w
  4007     0252  00A2               	movwf	___awdiv@dividend
  4008     0253  0830               	movf	??_convection+1,w
  4009     0254  00A3               	movwf	___awdiv@dividend+1
  4010     0255  120A  158A  2729  120A  118A  	fcall	___awdiv
  4011     025A  1283               	bcf	3,5	;RP0=0, select bank0
  4012     025B  1303               	bcf	3,6	;RP1=0, select bank0
  4013     025C  0821               	movf	?___awdiv+1,w
  4014     025D  00AB               	movwf	___awmod@dividend+1
  4015     025E  0820               	movf	?___awdiv,w
  4016     025F  00AA               	movwf	___awmod@dividend
  4017     0260  120A  118A  249F  120A  118A  	fcall	___awmod
  4018     0265  1283               	bcf	3,5	;RP0=0, select bank0
  4019     0266  1303               	bcf	3,6	;RP1=0, select bank0
  4020     0267  0828               	movf	?___awmod,w
  4021     0268  3E30               	addlw	48
  4022     0269  00C4               	movwf	_Temp+1
  4023     026A                     l1993:
  4024                           
  4025                           ;micro_oven.c: 157:         Temp[2] = (temp % 10) + '0';
  4026     026A  300A               	movlw	10
  4027     026B  00A8               	movwf	___awmod@divisor
  4028     026C  3000               	movlw	0
  4029     026D  00A9               	movwf	___awmod@divisor+1
  4030     026E  083E               	movf	convection@temp,w
  4031     026F  00AF               	movwf	??_convection
  4032     0270  01B0               	clrf	??_convection+1
  4033     0271  082F               	movf	??_convection,w
  4034     0272  00AA               	movwf	___awmod@dividend
  4035     0273  0830               	movf	??_convection+1,w
  4036     0274  00AB               	movwf	___awmod@dividend+1
  4037     0275  120A  118A  249F  120A  118A  	fcall	___awmod
  4038     027A  1283               	bcf	3,5	;RP0=0, select bank0
  4039     027B  1303               	bcf	3,6	;RP1=0, select bank0
  4040     027C  0828               	movf	?___awmod,w
  4041     027D  3E30               	addlw	48
  4042     027E  00C5               	movwf	_Temp+2
  4043     027F                     l1995:
  4044                           
  4045                           ;micro_oven.c: 158:         Temp[3] = '\0';
  4046     027F  01C6               	clrf	_Temp+3
  4047     0280                     l1997:
  4048                           
  4049                           ;micro_oven.c: 160:         if (blink) clcd_print(Temp, (0xC0 + 6));
  4050     0280  0842               	movf	_blink,w
  4051     0281  1903               	btfsc	3,2
  4052     0282  2A84               	goto	u1621
  4053     0283  2A85               	goto	u1620
  4054     0284                     u1621:
  4055     0284  2A91               	goto	l2001
  4056     0285                     u1620:
  4057     0285                     l1999:
  4058     0285  3043               	movlw	(low (_Temp| 0))& (0+255)
  4059     0286  00A4               	movwf	clcd_print@str
  4060     0287  3000               	movlw	0
  4061     0288  00A5               	movwf	clcd_print@str+1
  4062     0289  30C6               	movlw	198
  4063     028A  00A6               	movwf	clcd_print@addr
  4064     028B  120A  158A  2680  120A  118A  	fcall	_clcd_print
  4065     0290  29D8               	goto	l1949
  4066     0291                     l2001:
  4067     0291  300E               	movlw	(low (((STR_5+13)-__stringbase)| (0+32768)))& (0+255)
  4068     0292  00A4               	movwf	clcd_print@str
  4069     0293  3080               	movlw	128
  4070     0294  00A5               	movwf	clcd_print@str+1
  4071     0295  30C6               	movlw	198
  4072     0296  00A6               	movwf	clcd_print@addr
  4073     0297  120A  158A  2680  120A  118A  	fcall	_clcd_print
  4074     029C  29D8               	goto	l1949
  4075     029D                     l2003:
  4076                           
  4077                           ;micro_oven.c: 164:     {;micro_oven.c: 166:         clcd_print("  Pre-Heating   ", (0x8
      +                          0 + 0));
  4078     029D  3012               	movlw	(low ((STR_16-__stringbase)| (0+32768)))& (0+255)
  4079     029E  00A4               	movwf	clcd_print@str
  4080     029F  3080               	movlw	128
  4081     02A0  00A5               	movwf	clcd_print@str+1
  4082     02A1  3080               	movlw	128
  4083     02A2  00A6               	movwf	clcd_print@addr
  4084     02A3  120A  158A  2680  120A  118A  	fcall	_clcd_print
  4085                           
  4086                           ;micro_oven.c: 167:         clcd_print(" Time Left: ", (0xC0 + 0));
  4087     02A8  3085               	movlw	(low ((STR_17-__stringbase)| (0+32768)))& (0+255)
  4088     02A9  1283               	bcf	3,5	;RP0=0, select bank0
  4089     02AA  1303               	bcf	3,6	;RP1=0, select bank0
  4090     02AB  00A4               	movwf	clcd_print@str
  4091     02AC  3080               	movlw	128
  4092     02AD  00A5               	movwf	clcd_print@str+1
  4093     02AE  30C0               	movlw	192
  4094     02AF  00A6               	movwf	clcd_print@addr
  4095     02B0  120A  158A  2680  120A  118A  	fcall	_clcd_print
  4096     02B5                     l2005:
  4097                           
  4098                           ;micro_oven.c: 169:         Secs[0] = (sec / 10) + '0';
  4099     02B5  300A               	movlw	10
  4100     02B6  1283               	bcf	3,5	;RP0=0, select bank0
  4101     02B7  1303               	bcf	3,6	;RP1=0, select bank0
  4102     02B8  00A0               	movwf	___awdiv@divisor
  4103     02B9  3000               	movlw	0
  4104     02BA  00A1               	movwf	___awdiv@divisor+1
  4105     02BB  083C               	movf	_sec+1,w
  4106     02BC  00A3               	movwf	___awdiv@dividend+1
  4107     02BD  083B               	movf	_sec,w
  4108     02BE  00A2               	movwf	___awdiv@dividend
  4109     02BF  120A  158A  2729  120A  118A  	fcall	___awdiv
  4110     02C4  1283               	bcf	3,5	;RP0=0, select bank0
  4111     02C5  1303               	bcf	3,6	;RP1=0, select bank0
  4112     02C6  0820               	movf	?___awdiv,w
  4113     02C7  3E30               	addlw	48
  4114     02C8  00C7               	movwf	_Secs
  4115     02C9                     l2007:
  4116                           
  4117                           ;micro_oven.c: 170:         Secs[1] = (sec % 10) + '0';
  4118     02C9  300A               	movlw	10
  4119     02CA  00A8               	movwf	___awmod@divisor
  4120     02CB  3000               	movlw	0
  4121     02CC  00A9               	movwf	___awmod@divisor+1
  4122     02CD  083C               	movf	_sec+1,w
  4123     02CE  00AB               	movwf	___awmod@dividend+1
  4124     02CF  083B               	movf	_sec,w
  4125     02D0  00AA               	movwf	___awmod@dividend
  4126     02D1  120A  118A  249F  120A  118A  	fcall	___awmod
  4127     02D6  1283               	bcf	3,5	;RP0=0, select bank0
  4128     02D7  1303               	bcf	3,6	;RP1=0, select bank0
  4129     02D8  0828               	movf	?___awmod,w
  4130     02D9  3E30               	addlw	48
  4131     02DA  00C8               	movwf	_Secs+1
  4132     02DB                     l2009:
  4133                           
  4134                           ;micro_oven.c: 171:         Secs[2] = '\0';
  4135     02DB  01C9               	clrf	_Secs+2
  4136     02DC                     l2011:
  4137                           
  4138                           ;micro_oven.c: 173:         clcd_print(Secs, (0xC0 + 12));
  4139     02DC  3047               	movlw	(low (_Secs| 0))& (0+255)
  4140     02DD  00A4               	movwf	clcd_print@str
  4141     02DE  3000               	movlw	0
  4142     02DF  00A5               	movwf	clcd_print@str+1
  4143     02E0  30CC               	movlw	204
  4144     02E1  00A6               	movwf	clcd_print@addr
  4145     02E2  120A  158A  2680  120A  118A  	fcall	_clcd_print
  4146     02E7                     l2013:
  4147                           
  4148                           ;micro_oven.c: 175:         if (sec == 0)
  4149     02E7  1283               	bcf	3,5	;RP0=0, select bank0
  4150     02E8  1303               	bcf	3,6	;RP1=0, select bank0
  4151     02E9  083B               	movf	_sec,w
  4152     02EA  043C               	iorwf	_sec+1,w
  4153     02EB  1D03               	btfss	3,2
  4154     02EC  2AEE               	goto	u1631
  4155     02ED  2AEF               	goto	u1630
  4156     02EE                     u1631:
  4157     02EE  29D8               	goto	l1949
  4158     02EF                     u1630:
  4159     02EF                     l2015:
  4160                           
  4161                           ;micro_oven.c: 176:         {;micro_oven.c: 177:             return 0x02;
  4162     02EF  3002               	movlw	2
  4163     02F0                     l261:
  4164     02F0  0008               	return
  4165     02F1                     __end_of_convection:
  4166                           
  4167                           	psect	text14
  4168     0DC8                     __ptext14:	
  4169 ;; *************** function _clear_screen *****************
  4170 ;; Defined at:
  4171 ;;		line 74 in file "clcd.c"
  4172 ;; Parameters:    Size  Location     Type
  4173 ;;		None
  4174 ;; Auto vars:     Size  Location     Type
  4175 ;;		None
  4176 ;; Return value:  Size  Location     Type
  4177 ;;                  1    wreg      void 
  4178 ;; Registers used:
  4179 ;;		wreg, status,2, status,0, pclath, cstack
  4180 ;; Tracked objects:
  4181 ;;		On entry : 0/0
  4182 ;;		On exit  : 0/0
  4183 ;;		Unchanged: 0/0
  4184 ;; Data sizes:     COMMON   BANK0   BANK1   BANK3   BANK2
  4185 ;;      Params:         0       0       0       0       0
  4186 ;;      Locals:         0       0       0       0       0
  4187 ;;      Temps:          0       0       0       0       0
  4188 ;;      Totals:         0       0       0       0       0
  4189 ;;Total ram usage:        0 bytes
  4190 ;; Hardware stack levels used: 1
  4191 ;; Hardware stack levels required when called: 2
  4192 ;; This function calls:
  4193 ;;		_clcd_write
  4194 ;; This function is called by:
  4195 ;;		_main
  4196 ;;		_set_time
  4197 ;;		_convection
  4198 ;;		_display_timer
  4199 ;; This function uses a non-reentrant model
  4200 ;;
  4201                           
  4202     0DC8                     _clear_screen:	
  4203                           ;psect for function _clear_screen
  4204                           
  4205     0DC8                     l1581:	
  4206                           ;incstack = 0
  4207                           ; Regs used in _clear_screen: [wreg+status,2+status,0+pclath+cstack]
  4208                           
  4209                           
  4210                           ;clcd.c: 76:     clcd_write(0x01, 0);
  4211     0DC8  1283               	bcf	3,5	;RP0=0, select bank0
  4212     0DC9  1303               	bcf	3,6	;RP1=0, select bank0
  4213     0DCA  01A0               	clrf	clcd_write@mode
  4214     0DCB  3001               	movlw	1
  4215     0DCC  120A  158A  26EB  120A  158A  	fcall	_clcd_write
  4216     0DD1                     l35:
  4217     0DD1  0008               	return
  4218     0DD2                     __end_of_clear_screen:
  4219                           
  4220                           	psect	text15
  4221     0E80                     __ptext15:	
  4222 ;; *************** function _clcd_print *****************
  4223 ;; Defined at:
  4224 ;;		line 63 in file "clcd.c"
  4225 ;; Parameters:    Size  Location     Type
  4226 ;;  str             2    4[BANK0 ] PTR const unsigned char 
  4227 ;;		 -> STR_23(16), STR_22(11), STR_21(7), STR_20(8), 
  4228 ;;		 -> STR_19(15), STR_18(9), STR_17(13), STR_16(17), 
  4229 ;;		 -> STR_15(4), Temp(4), STR_14(17), STR_13(10), 
  4230 ;;		 -> STR_12(16), STR_11(3), STR_10(3), Secs(3), 
  4231 ;;		 -> Mins(3), STR_9(17), STR_8(12), STR_7(17), 
  4232 ;;		 -> STR_6(17), STR_5(17), STR_4(8), STR_3(13), 
  4233 ;;		 -> STR_2(8), STR_1(8), 
  4234 ;;  addr            1    6[BANK0 ] unsigned char 
  4235 ;; Auto vars:     Size  Location     Type
  4236 ;;		None
  4237 ;; Return value:  Size  Location     Type
  4238 ;;                  1    wreg      void 
  4239 ;; Registers used:
  4240 ;;		wreg, fsr0l, fsr0h, status,2, status,0, pclath, btemp1, cstack
  4241 ;; Tracked objects:
  4242 ;;		On entry : 0/0
  4243 ;;		On exit  : 0/0
  4244 ;;		Unchanged: 0/0
  4245 ;; Data sizes:     COMMON   BANK0   BANK1   BANK3   BANK2
  4246 ;;      Params:         0       3       0       0       0
  4247 ;;      Locals:         0       0       0       0       0
  4248 ;;      Temps:          0       0       0       0       0
  4249 ;;      Totals:         0       3       0       0       0
  4250 ;;Total ram usage:        3 bytes
  4251 ;; Hardware stack levels used: 1
  4252 ;; Hardware stack levels required when called: 2
  4253 ;; This function calls:
  4254 ;;		_clcd_write
  4255 ;; This function is called by:
  4256 ;;		_main
  4257 ;;		_power_on
  4258 ;;		_set_time
  4259 ;;		_convection
  4260 ;;		_display_timer
  4261 ;; This function uses a non-reentrant model
  4262 ;;
  4263                           
  4264     0E80                     _clcd_print:	
  4265                           ;psect for function _clcd_print
  4266                           
  4267     0E80                     l1573:	
  4268                           ;incstack = 0
  4269                           ; Regs used in _clcd_print: [wreg-fsr0h+status,2+status,0+pclath+btemp1+cstack]
  4270                           
  4271                           
  4272                           ;clcd.c: 63: void clcd_print(const char *str, unsigned char addr);clcd.c: 64: {;clcd.c: 
      +                          65:     clcd_write(addr, 0);
  4273     0E80  1283               	bcf	3,5	;RP0=0, select bank0
  4274     0E81  1303               	bcf	3,6	;RP1=0, select bank0
  4275     0E82  01A0               	clrf	clcd_write@mode
  4276     0E83  0826               	movf	clcd_print@addr,w
  4277     0E84  120A  158A  26EB  120A  158A  	fcall	_clcd_write
  4278                           
  4279                           ;clcd.c: 67:     while (*str != '\0')
  4280     0E89  2EA2               	goto	l1579
  4281     0E8A                     l1575:
  4282                           
  4283                           ;clcd.c: 68:     {;clcd.c: 69:         clcd_write(*str, 1);
  4284     0E8A  01A0               	clrf	clcd_write@mode
  4285     0E8B  0AA0               	incf	clcd_write@mode,f
  4286     0E8C  0825               	movf	clcd_print@str+1,w
  4287     0E8D  00FF               	movwf	btemp1
  4288     0E8E  0824               	movf	clcd_print@str,w
  4289     0E8F  0084               	movwf	4
  4290     0E90  120A  118A  2500  120A  158A  	fcall	stringtab
  4291     0E95  120A  158A  26EB  120A  158A  	fcall	_clcd_write
  4292     0E9A                     l1577:
  4293                           
  4294                           ;clcd.c: 70:         str++;
  4295     0E9A  3001               	movlw	1
  4296     0E9B  1283               	bcf	3,5	;RP0=0, select bank0
  4297     0E9C  1303               	bcf	3,6	;RP1=0, select bank0
  4298     0E9D  07A4               	addwf	clcd_print@str,f
  4299     0E9E  1803               	skipnc
  4300     0E9F  0AA5               	incf	clcd_print@str+1,f
  4301     0EA0  3000               	movlw	0
  4302     0EA1  07A5               	addwf	clcd_print@str+1,f
  4303     0EA2                     l1579:
  4304                           
  4305                           ;clcd.c: 67:     while (*str != '\0')
  4306     0EA2  1283               	bcf	3,5	;RP0=0, select bank0
  4307     0EA3  1303               	bcf	3,6	;RP1=0, select bank0
  4308     0EA4  0825               	movf	clcd_print@str+1,w
  4309     0EA5  00FF               	movwf	btemp1
  4310     0EA6  0824               	movf	clcd_print@str,w
  4311     0EA7  0084               	movwf	4
  4312     0EA8  120A  118A  2500  120A  158A  	fcall	stringtab
  4313     0EAD  3A00               	xorlw	0
  4314     0EAE  1D03               	skipz
  4315     0EAF  2EB1               	goto	u951
  4316     0EB0  2EB2               	goto	u950
  4317     0EB1                     u951:
  4318     0EB1  2E8A               	goto	l1575
  4319     0EB2                     u950:
  4320     0EB2                     l32:
  4321     0EB2  0008               	return
  4322     0EB3                     __end_of_clcd_print:
  4323                           
  4324                           	psect	text16
  4325     0EEB                     __ptext16:	
  4326 ;; *************** function _clcd_write *****************
  4327 ;; Defined at:
  4328 ;;		line 5 in file "clcd.c"
  4329 ;; Parameters:    Size  Location     Type
  4330 ;;  byte            1    wreg     unsigned char 
  4331 ;;  mode            1    0[BANK0 ] unsigned char 
  4332 ;; Auto vars:     Size  Location     Type
  4333 ;;  byte            1    3[BANK0 ] unsigned char 
  4334 ;; Return value:  Size  Location     Type
  4335 ;;                  1    wreg      void 
  4336 ;; Registers used:
  4337 ;;		wreg, status,2, status,0
  4338 ;; Tracked objects:
  4339 ;;		On entry : 0/0
  4340 ;;		On exit  : 0/0
  4341 ;;		Unchanged: 0/0
  4342 ;; Data sizes:     COMMON   BANK0   BANK1   BANK3   BANK2
  4343 ;;      Params:         0       1       0       0       0
  4344 ;;      Locals:         0       1       0       0       0
  4345 ;;      Temps:          0       2       0       0       0
  4346 ;;      Totals:         0       4       0       0       0
  4347 ;;Total ram usage:        4 bytes
  4348 ;; Hardware stack levels used: 1
  4349 ;; Hardware stack levels required when called: 2
  4350 ;; This function calls:
  4351 ;;		Nothing
  4352 ;; This function is called by:
  4353 ;;		_init_display_controller
  4354 ;;		_clcd_putch
  4355 ;;		_clcd_print
  4356 ;;		_clear_screen
  4357 ;; This function uses a non-reentrant model
  4358 ;;
  4359                           
  4360     0EEB                     _clcd_write:	
  4361                           ;psect for function _clcd_write
  4362                           
  4363                           
  4364                           ;incstack = 0
  4365                           ; Regs used in _clcd_write: [wreg+status,2+status,0]
  4366                           ;clcd_write@byte stored from wreg
  4367     0EEB  1283               	bcf	3,5	;RP0=0, select bank0
  4368     0EEC  1303               	bcf	3,6	;RP1=0, select bank0
  4369     0EED  00A3               	movwf	clcd_write@byte
  4370     0EEE                     l1519:
  4371                           
  4372                           ;clcd.c: 5: void clcd_write(unsigned char byte, unsigned char mode);clcd.c: 6: {;clcd.c:
      +                           7:     RE2 = mode;
  4373     0EEE  1820               	btfsc	clcd_write@mode,0
  4374     0EEF  2EF1               	goto	u921
  4375     0EF0  2EF5               	goto	u920
  4376     0EF1                     u921:
  4377     0EF1  1283               	bcf	3,5	;RP0=0, select bank0
  4378     0EF2  1303               	bcf	3,6	;RP1=0, select bank0
  4379     0EF3  1509               	bsf	9,2	;volatile
  4380     0EF4  2EF8               	goto	u934
  4381     0EF5                     u920:
  4382     0EF5  1283               	bcf	3,5	;RP0=0, select bank0
  4383     0EF6  1303               	bcf	3,6	;RP1=0, select bank0
  4384     0EF7  1109               	bcf	9,2	;volatile
  4385     0EF8                     u934:
  4386     0EF8                     l1521:
  4387                           
  4388                           ;clcd.c: 9:     PORTD = byte & 0xF0;
  4389     0EF8  0823               	movf	clcd_write@byte,w
  4390     0EF9  39F0               	andlw	240
  4391     0EFA  0088               	movwf	8	;volatile
  4392     0EFB                     l1523:
  4393                           
  4394                           ;clcd.c: 10:     RE1 = 1;
  4395     0EFB  1489               	bsf	9,1	;volatile
  4396     0EFC                     l1525:
  4397                           
  4398                           ;clcd.c: 11:     _delay((unsigned long)((100)*(20000000/4000000.0)));
  4399     0EFC  30A5               	movlw	165
  4400     0EFD  1283               	bcf	3,5	;RP0=0, select bank0
  4401     0EFE  1303               	bcf	3,6	;RP1=0, select bank0
  4402     0EFF  00A1               	movwf	??_clcd_write
  4403     0F00                     u2527:
  4404     0F00  0BA1               	decfsz	??_clcd_write,f
  4405     0F01  2F00               	goto	u2527
  4406     0F02  2F03               	nop2
  4407     0F03                     l1527:
  4408                           
  4409                           ;clcd.c: 12:     RE1 = 0;
  4410     0F03  1283               	bcf	3,5	;RP0=0, select bank0
  4411     0F04  1303               	bcf	3,6	;RP1=0, select bank0
  4412     0F05  1089               	bcf	9,1	;volatile
  4413     0F06                     l1529:
  4414                           
  4415                           ;clcd.c: 14:     PORTD = (byte & 0x0F) << 4;
  4416     0F06  0823               	movf	clcd_write@byte,w
  4417     0F07  390F               	andlw	15
  4418     0F08  00A1               	movwf	??_clcd_write
  4419     0F09  3003               	movlw	3
  4420     0F0A                     u945:
  4421     0F0A  1003               	clrc
  4422     0F0B  0DA1               	rlf	??_clcd_write,f
  4423     0F0C  3EFF               	addlw	-1
  4424     0F0D  1D03               	skipz
  4425     0F0E  2F0A               	goto	u945
  4426     0F0F  1003               	clrc
  4427     0F10  0D21               	rlf	??_clcd_write,w
  4428     0F11  0088               	movwf	8	;volatile
  4429     0F12                     l1531:
  4430                           
  4431                           ;clcd.c: 15:     RE1 = 1;
  4432     0F12  1489               	bsf	9,1	;volatile
  4433     0F13                     l1533:
  4434                           
  4435                           ;clcd.c: 16:     _delay((unsigned long)((100)*(20000000/4000000.0)));
  4436     0F13  30A5               	movlw	165
  4437     0F14  1283               	bcf	3,5	;RP0=0, select bank0
  4438     0F15  1303               	bcf	3,6	;RP1=0, select bank0
  4439     0F16  00A1               	movwf	??_clcd_write
  4440     0F17                     u2537:
  4441     0F17  0BA1               	decfsz	??_clcd_write,f
  4442     0F18  2F17               	goto	u2537
  4443     0F19  2F1A               	nop2
  4444     0F1A                     l1535:
  4445                           
  4446                           ;clcd.c: 17:     RE1 = 0;
  4447     0F1A  1283               	bcf	3,5	;RP0=0, select bank0
  4448     0F1B  1303               	bcf	3,6	;RP1=0, select bank0
  4449     0F1C  1089               	bcf	9,1	;volatile
  4450     0F1D                     l1537:
  4451                           
  4452                           ;clcd.c: 19:     _delay((unsigned long)((4100)*(20000000/4000000.0)));
  4453     0F1D  301B               	movlw	27
  4454     0F1E  1283               	bcf	3,5	;RP0=0, select bank0
  4455     0F1F  1303               	bcf	3,6	;RP1=0, select bank0
  4456     0F20  00A2               	movwf	??_clcd_write+1
  4457     0F21  309D               	movlw	157
  4458     0F22  00A1               	movwf	??_clcd_write
  4459     0F23                     u2547:
  4460     0F23  0BA1               	decfsz	??_clcd_write,f
  4461     0F24  2F23               	goto	u2547
  4462     0F25  0BA2               	decfsz	??_clcd_write+1,f
  4463     0F26  2F23               	goto	u2547
  4464     0F27  2F28               	nop2
  4465     0F28                     l17:
  4466     0F28  0008               	return
  4467     0F29                     __end_of_clcd_write:
  4468                           
  4469                           	psect	text17
  4470     0DEA                     __ptext17:	
  4471 ;; *************** function ___bmul *****************
  4472 ;; Defined at:
  4473 ;;		line 4 in file "C:\Program Files\Microchip\xc8\v3.10\pic\sources\c99\common\Umul8.c"
  4474 ;; Parameters:    Size  Location     Type
  4475 ;;  multiplier      1    wreg     unsigned char 
  4476 ;;  multiplicand    1    0[BANK0 ] unsigned char 
  4477 ;; Auto vars:     Size  Location     Type
  4478 ;;  multiplier      1    2[BANK0 ] unsigned char 
  4479 ;;  product         1    1[BANK0 ] unsigned char 
  4480 ;; Return value:  Size  Location     Type
  4481 ;;                  1    wreg      unsigned char 
  4482 ;; Registers used:
  4483 ;;		wreg, status,2, status,0
  4484 ;; Tracked objects:
  4485 ;;		On entry : 0/0
  4486 ;;		On exit  : 0/0
  4487 ;;		Unchanged: 0/0
  4488 ;; Data sizes:     COMMON   BANK0   BANK1   BANK3   BANK2
  4489 ;;      Params:         0       1       0       0       0
  4490 ;;      Locals:         0       2       0       0       0
  4491 ;;      Temps:          0       0       0       0       0
  4492 ;;      Totals:         0       3       0       0       0
  4493 ;;Total ram usage:        3 bytes
  4494 ;; Hardware stack levels used: 1
  4495 ;; Hardware stack levels required when called: 2
  4496 ;; This function calls:
  4497 ;;		Nothing
  4498 ;; This function is called by:
  4499 ;;		_convection
  4500 ;; This function uses a non-reentrant model
  4501 ;;
  4502                           
  4503     0DEA                     ___bmul:	
  4504                           ;psect for function ___bmul
  4505                           
  4506                           
  4507                           ;incstack = 0
  4508                           ; Regs used in ___bmul: [wreg+status,2+status,0]
  4509                           ;___bmul@multiplier stored from wreg
  4510     0DEA  1283               	bcf	3,5	;RP0=0, select bank0
  4511     0DEB  1303               	bcf	3,6	;RP1=0, select bank0
  4512     0DEC  00A2               	movwf	___bmul@multiplier
  4513     0DED                     l1683:
  4514     0DED  01A1               	clrf	___bmul@product
  4515     0DEE                     l1685:
  4516     0DEE  1C22               	btfss	___bmul@multiplier,0
  4517     0DEF  2DF1               	goto	u1121
  4518     0DF0  2DF2               	goto	u1120
  4519     0DF1                     u1121:
  4520     0DF1  2DF4               	goto	l1689
  4521     0DF2                     u1120:
  4522     0DF2                     l1687:
  4523     0DF2  0820               	movf	___bmul@multiplicand,w
  4524     0DF3  07A1               	addwf	___bmul@product,f
  4525     0DF4                     l1689:
  4526     0DF4  1003               	clrc
  4527     0DF5  0DA0               	rlf	___bmul@multiplicand,f
  4528     0DF6                     l1691:
  4529     0DF6  1003               	clrc
  4530     0DF7  0CA2               	rrf	___bmul@multiplier,f
  4531     0DF8  0822               	movf	___bmul@multiplier,w
  4532     0DF9  1D03               	btfss	3,2
  4533     0DFA  2DFC               	goto	u1131
  4534     0DFB  2DFD               	goto	u1130
  4535     0DFC                     u1131:
  4536     0DFC  2DEE               	goto	l1685
  4537     0DFD                     u1130:
  4538     0DFD                     l1693:
  4539     0DFD  0821               	movf	___bmul@product,w
  4540     0DFE                     l411:
  4541     0DFE  0008               	return
  4542     0DFF                     __end_of___bmul:
  4543                           
  4544                           	psect	text18
  4545     049F                     __ptext18:	
  4546 ;; *************** function ___awmod *****************
  4547 ;; Defined at:
  4548 ;;		line 5 in file "C:\Program Files\Microchip\xc8\v3.10\pic\sources\c99\common\awmod.c"
  4549 ;; Parameters:    Size  Location     Type
  4550 ;;  divisor         2    8[BANK0 ] int 
  4551 ;;  dividend        2   10[BANK0 ] int 
  4552 ;; Auto vars:     Size  Location     Type
  4553 ;;  sign            1   13[BANK0 ] unsigned char 
  4554 ;;  counter         1   12[BANK0 ] unsigned char 
  4555 ;; Return value:  Size  Location     Type
  4556 ;;                  2    8[BANK0 ] int 
  4557 ;; Registers used:
  4558 ;;		wreg, status,2, status,0
  4559 ;; Tracked objects:
  4560 ;;		On entry : 0/0
  4561 ;;		On exit  : 0/0
  4562 ;;		Unchanged: 0/0
  4563 ;; Data sizes:     COMMON   BANK0   BANK1   BANK3   BANK2
  4564 ;;      Params:         0       4       0       0       0
  4565 ;;      Locals:         0       2       0       0       0
  4566 ;;      Temps:          0       0       0       0       0
  4567 ;;      Totals:         0       6       0       0       0
  4568 ;;Total ram usage:        6 bytes
  4569 ;; Hardware stack levels used: 1
  4570 ;; Hardware stack levels required when called: 2
  4571 ;; This function calls:
  4572 ;;		Nothing
  4573 ;; This function is called by:
  4574 ;;		_convection
  4575 ;;		_set_time
  4576 ;;		_display_timer
  4577 ;; This function uses a non-reentrant model
  4578 ;;
  4579                           
  4580     049F                     ___awmod:	
  4581                           ;psect for function ___awmod
  4582                           
  4583     049F                     l1741:	
  4584                           ;incstack = 0
  4585                           ; Regs used in ___awmod: [wreg+status,2+status,0]
  4586                           
  4587     049F  1283               	bcf	3,5	;RP0=0, select bank0
  4588     04A0  1303               	bcf	3,6	;RP1=0, select bank0
  4589     04A1  01AD               	clrf	___awmod@sign
  4590     04A2                     l1743:
  4591     04A2  1FAB               	btfss	___awmod@dividend+1,7
  4592     04A3  2CA5               	goto	u1241
  4593     04A4  2CA6               	goto	u1240
  4594     04A5                     u1241:
  4595     04A5  2CAD               	goto	l1749
  4596     04A6                     u1240:
  4597     04A6                     l1745:
  4598     04A6  09AA               	comf	___awmod@dividend,f
  4599     04A7  09AB               	comf	___awmod@dividend+1,f
  4600     04A8  0AAA               	incf	___awmod@dividend,f
  4601     04A9  1903               	skipnz
  4602     04AA  0AAB               	incf	___awmod@dividend+1,f
  4603     04AB                     l1747:
  4604     04AB  3001               	movlw	1
  4605     04AC  00AD               	movwf	___awmod@sign
  4606     04AD                     l1749:
  4607     04AD  1FA9               	btfss	___awmod@divisor+1,7
  4608     04AE  2CB0               	goto	u1251
  4609     04AF  2CB1               	goto	u1250
  4610     04B0                     u1251:
  4611     04B0  2CB6               	goto	l1753
  4612     04B1                     u1250:
  4613     04B1                     l1751:
  4614     04B1  09A8               	comf	___awmod@divisor,f
  4615     04B2  09A9               	comf	___awmod@divisor+1,f
  4616     04B3  0AA8               	incf	___awmod@divisor,f
  4617     04B4  1903               	skipnz
  4618     04B5  0AA9               	incf	___awmod@divisor+1,f
  4619     04B6                     l1753:
  4620     04B6  0828               	movf	___awmod@divisor,w
  4621     04B7  0429               	iorwf	___awmod@divisor+1,w
  4622     04B8  1903               	btfsc	3,2
  4623     04B9  2CBB               	goto	u1261
  4624     04BA  2CBC               	goto	u1260
  4625     04BB                     u1261:
  4626     04BB  2CE9               	goto	l1771
  4627     04BC                     u1260:
  4628     04BC                     l1755:
  4629     04BC  3001               	movlw	1
  4630     04BD  00AC               	movwf	___awmod@counter
  4631     04BE  2CC8               	goto	l1761
  4632     04BF                     l1757:
  4633     04BF  3001               	movlw	1
  4634     04C0                     u1275:
  4635     04C0  1003               	clrc
  4636     04C1  0DA8               	rlf	___awmod@divisor,f
  4637     04C2  0DA9               	rlf	___awmod@divisor+1,f
  4638     04C3  3EFF               	addlw	-1
  4639     04C4  1D03               	skipz
  4640     04C5  2CC0               	goto	u1275
  4641     04C6                     l1759:
  4642     04C6  3001               	movlw	1
  4643     04C7  07AC               	addwf	___awmod@counter,f
  4644     04C8                     l1761:
  4645     04C8  1FA9               	btfss	___awmod@divisor+1,7
  4646     04C9  2CCB               	goto	u1281
  4647     04CA  2CCC               	goto	u1280
  4648     04CB                     u1281:
  4649     04CB  2CBF               	goto	l1757
  4650     04CC                     u1280:
  4651     04CC                     l1763:
  4652     04CC  0829               	movf	___awmod@divisor+1,w
  4653     04CD  022B               	subwf	___awmod@dividend+1,w
  4654     04CE  1D03               	skipz
  4655     04CF  2CD2               	goto	u1295
  4656     04D0  0828               	movf	___awmod@divisor,w
  4657     04D1  022A               	subwf	___awmod@dividend,w
  4658     04D2                     u1295:
  4659     04D2  1C03               	skipc
  4660     04D3  2CD5               	goto	u1291
  4661     04D4  2CD6               	goto	u1290
  4662     04D5                     u1291:
  4663     04D5  2CDC               	goto	l1767
  4664     04D6                     u1290:
  4665     04D6                     l1765:
  4666     04D6  0828               	movf	___awmod@divisor,w
  4667     04D7  02AA               	subwf	___awmod@dividend,f
  4668     04D8  0829               	movf	___awmod@divisor+1,w
  4669     04D9  1C03               	skipc
  4670     04DA  03AB               	decf	___awmod@dividend+1,f
  4671     04DB  02AB               	subwf	___awmod@dividend+1,f
  4672     04DC                     l1767:
  4673     04DC  3001               	movlw	1
  4674     04DD                     u1305:
  4675     04DD  1003               	clrc
  4676     04DE  0CA9               	rrf	___awmod@divisor+1,f
  4677     04DF  0CA8               	rrf	___awmod@divisor,f
  4678     04E0  3EFF               	addlw	-1
  4679     04E1  1D03               	skipz
  4680     04E2  2CDD               	goto	u1305
  4681     04E3                     l1769:
  4682     04E3  3001               	movlw	1
  4683     04E4  02AC               	subwf	___awmod@counter,f
  4684     04E5  1D03               	btfss	3,2
  4685     04E6  2CE8               	goto	u1311
  4686     04E7  2CE9               	goto	u1310
  4687     04E8                     u1311:
  4688     04E8  2CCC               	goto	l1763
  4689     04E9                     u1310:
  4690     04E9                     l1771:
  4691     04E9  082D               	movf	___awmod@sign,w
  4692     04EA  1903               	btfsc	3,2
  4693     04EB  2CED               	goto	u1321
  4694     04EC  2CEE               	goto	u1320
  4695     04ED                     u1321:
  4696     04ED  2CF3               	goto	l1775
  4697     04EE                     u1320:
  4698     04EE                     l1773:
  4699     04EE  09AA               	comf	___awmod@dividend,f
  4700     04EF  09AB               	comf	___awmod@dividend+1,f
  4701     04F0  0AAA               	incf	___awmod@dividend,f
  4702     04F1  1903               	skipnz
  4703     04F2  0AAB               	incf	___awmod@dividend+1,f
  4704     04F3                     l1775:
  4705     04F3  082B               	movf	___awmod@dividend+1,w
  4706     04F4  00A9               	movwf	?___awmod+1
  4707     04F5  082A               	movf	___awmod@dividend,w
  4708     04F6  00A8               	movwf	?___awmod
  4709     04F7                     l551:
  4710     04F7  0008               	return
  4711     04F8                     __end_of___awmod:
  4712                           
  4713                           	psect	text19
  4714     0F29                     __ptext19:	
  4715 ;; *************** function ___awdiv *****************
  4716 ;; Defined at:
  4717 ;;		line 5 in file "C:\Program Files\Microchip\xc8\v3.10\pic\sources\c99\common\awdiv.c"
  4718 ;; Parameters:    Size  Location     Type
  4719 ;;  divisor         2    0[BANK0 ] int 
  4720 ;;  dividend        2    2[BANK0 ] int 
  4721 ;; Auto vars:     Size  Location     Type
  4722 ;;  quotient        2    6[BANK0 ] int 
  4723 ;;  sign            1    5[BANK0 ] unsigned char 
  4724 ;;  counter         1    4[BANK0 ] unsigned char 
  4725 ;; Return value:  Size  Location     Type
  4726 ;;                  2    0[BANK0 ] int 
  4727 ;; Registers used:
  4728 ;;		wreg, status,2, status,0
  4729 ;; Tracked objects:
  4730 ;;		On entry : 0/0
  4731 ;;		On exit  : 0/0
  4732 ;;		Unchanged: 0/0
  4733 ;; Data sizes:     COMMON   BANK0   BANK1   BANK3   BANK2
  4734 ;;      Params:         0       4       0       0       0
  4735 ;;      Locals:         0       4       0       0       0
  4736 ;;      Temps:          0       0       0       0       0
  4737 ;;      Totals:         0       8       0       0       0
  4738 ;;Total ram usage:        8 bytes
  4739 ;; Hardware stack levels used: 1
  4740 ;; Hardware stack levels required when called: 2
  4741 ;; This function calls:
  4742 ;;		Nothing
  4743 ;; This function is called by:
  4744 ;;		_convection
  4745 ;;		_set_time
  4746 ;;		_display_timer
  4747 ;; This function uses a non-reentrant model
  4748 ;;
  4749                           
  4750     0F29                     ___awdiv:	
  4751                           ;psect for function ___awdiv
  4752                           
  4753     0F29                     l1697:	
  4754                           ;incstack = 0
  4755                           ; Regs used in ___awdiv: [wreg+status,2+status,0]
  4756                           
  4757     0F29  1283               	bcf	3,5	;RP0=0, select bank0
  4758     0F2A  1303               	bcf	3,6	;RP1=0, select bank0
  4759     0F2B  01A5               	clrf	___awdiv@sign
  4760     0F2C                     l1699:
  4761     0F2C  1FA1               	btfss	___awdiv@divisor+1,7
  4762     0F2D  2F2F               	goto	u1141
  4763     0F2E  2F30               	goto	u1140
  4764     0F2F                     u1141:
  4765     0F2F  2F37               	goto	l1705
  4766     0F30                     u1140:
  4767     0F30                     l1701:
  4768     0F30  09A0               	comf	___awdiv@divisor,f
  4769     0F31  09A1               	comf	___awdiv@divisor+1,f
  4770     0F32  0AA0               	incf	___awdiv@divisor,f
  4771     0F33  1903               	skipnz
  4772     0F34  0AA1               	incf	___awdiv@divisor+1,f
  4773     0F35                     l1703:
  4774     0F35  3001               	movlw	1
  4775     0F36  00A5               	movwf	___awdiv@sign
  4776     0F37                     l1705:
  4777     0F37  1FA3               	btfss	___awdiv@dividend+1,7
  4778     0F38  2F3A               	goto	u1151
  4779     0F39  2F3B               	goto	u1150
  4780     0F3A                     u1151:
  4781     0F3A  2F42               	goto	l1711
  4782     0F3B                     u1150:
  4783     0F3B                     l1707:
  4784     0F3B  09A2               	comf	___awdiv@dividend,f
  4785     0F3C  09A3               	comf	___awdiv@dividend+1,f
  4786     0F3D  0AA2               	incf	___awdiv@dividend,f
  4787     0F3E  1903               	skipnz
  4788     0F3F  0AA3               	incf	___awdiv@dividend+1,f
  4789     0F40                     l1709:
  4790     0F40  3001               	movlw	1
  4791     0F41  06A5               	xorwf	___awdiv@sign,f
  4792     0F42                     l1711:
  4793     0F42  01A6               	clrf	___awdiv@quotient
  4794     0F43  01A7               	clrf	___awdiv@quotient+1
  4795     0F44                     l1713:
  4796     0F44  0820               	movf	___awdiv@divisor,w
  4797     0F45  0421               	iorwf	___awdiv@divisor+1,w
  4798     0F46  1903               	btfsc	3,2
  4799     0F47  2F49               	goto	u1161
  4800     0F48  2F4A               	goto	u1160
  4801     0F49                     u1161:
  4802     0F49  2F7F               	goto	l1733
  4803     0F4A                     u1160:
  4804     0F4A                     l1715:
  4805     0F4A  3001               	movlw	1
  4806     0F4B  00A4               	movwf	___awdiv@counter
  4807     0F4C  2F56               	goto	l1721
  4808     0F4D                     l1717:
  4809     0F4D  3001               	movlw	1
  4810     0F4E                     u1175:
  4811     0F4E  1003               	clrc
  4812     0F4F  0DA0               	rlf	___awdiv@divisor,f
  4813     0F50  0DA1               	rlf	___awdiv@divisor+1,f
  4814     0F51  3EFF               	addlw	-1
  4815     0F52  1D03               	skipz
  4816     0F53  2F4E               	goto	u1175
  4817     0F54                     l1719:
  4818     0F54  3001               	movlw	1
  4819     0F55  07A4               	addwf	___awdiv@counter,f
  4820     0F56                     l1721:
  4821     0F56  1FA1               	btfss	___awdiv@divisor+1,7
  4822     0F57  2F59               	goto	u1181
  4823     0F58  2F5A               	goto	u1180
  4824     0F59                     u1181:
  4825     0F59  2F4D               	goto	l1717
  4826     0F5A                     u1180:
  4827     0F5A                     l1723:
  4828     0F5A  3001               	movlw	1
  4829     0F5B                     u1195:
  4830     0F5B  1003               	clrc
  4831     0F5C  0DA6               	rlf	___awdiv@quotient,f
  4832     0F5D  0DA7               	rlf	___awdiv@quotient+1,f
  4833     0F5E  3EFF               	addlw	-1
  4834     0F5F  1D03               	skipz
  4835     0F60  2F5B               	goto	u1195
  4836     0F61  0821               	movf	___awdiv@divisor+1,w
  4837     0F62  0223               	subwf	___awdiv@dividend+1,w
  4838     0F63  1D03               	skipz
  4839     0F64  2F67               	goto	u1205
  4840     0F65  0820               	movf	___awdiv@divisor,w
  4841     0F66  0222               	subwf	___awdiv@dividend,w
  4842     0F67                     u1205:
  4843     0F67  1C03               	skipc
  4844     0F68  2F6A               	goto	u1201
  4845     0F69  2F6B               	goto	u1200
  4846     0F6A                     u1201:
  4847     0F6A  2F72               	goto	l1729
  4848     0F6B                     u1200:
  4849     0F6B                     l1725:
  4850     0F6B  0820               	movf	___awdiv@divisor,w
  4851     0F6C  02A2               	subwf	___awdiv@dividend,f
  4852     0F6D  0821               	movf	___awdiv@divisor+1,w
  4853     0F6E  1C03               	skipc
  4854     0F6F  03A3               	decf	___awdiv@dividend+1,f
  4855     0F70  02A3               	subwf	___awdiv@dividend+1,f
  4856     0F71                     l1727:
  4857     0F71  1426               	bsf	___awdiv@quotient,0
  4858     0F72                     l1729:
  4859     0F72  3001               	movlw	1
  4860     0F73                     u1215:
  4861     0F73  1003               	clrc
  4862     0F74  0CA1               	rrf	___awdiv@divisor+1,f
  4863     0F75  0CA0               	rrf	___awdiv@divisor,f
  4864     0F76  3EFF               	addlw	-1
  4865     0F77  1D03               	skipz
  4866     0F78  2F73               	goto	u1215
  4867     0F79                     l1731:
  4868     0F79  3001               	movlw	1
  4869     0F7A  02A4               	subwf	___awdiv@counter,f
  4870     0F7B  1D03               	btfss	3,2
  4871     0F7C  2F7E               	goto	u1221
  4872     0F7D  2F7F               	goto	u1220
  4873     0F7E                     u1221:
  4874     0F7E  2F5A               	goto	l1723
  4875     0F7F                     u1220:
  4876     0F7F                     l1733:
  4877     0F7F  0825               	movf	___awdiv@sign,w
  4878     0F80  1903               	btfsc	3,2
  4879     0F81  2F83               	goto	u1231
  4880     0F82  2F84               	goto	u1230
  4881     0F83                     u1231:
  4882     0F83  2F89               	goto	l1737
  4883     0F84                     u1230:
  4884     0F84                     l1735:
  4885     0F84  09A6               	comf	___awdiv@quotient,f
  4886     0F85  09A7               	comf	___awdiv@quotient+1,f
  4887     0F86  0AA6               	incf	___awdiv@quotient,f
  4888     0F87  1903               	skipnz
  4889     0F88  0AA7               	incf	___awdiv@quotient+1,f
  4890     0F89                     l1737:
  4891     0F89  0827               	movf	___awdiv@quotient+1,w
  4892     0F8A  00A1               	movwf	?___awdiv+1
  4893     0F8B  0826               	movf	___awdiv@quotient,w
  4894     0F8C  00A0               	movwf	?___awdiv
  4895     0F8D                     l538:
  4896     0F8D  0008               	return
  4897     0F8E                     __end_of___awdiv:
  4898                           
  4899                           	psect	text20
  4900     0421                     __ptext20:	
  4901 ;; *************** function _isr *****************
  4902 ;; Defined at:
  4903 ;;		line 9 in file "isr.c"
  4904 ;; Parameters:    Size  Location     Type
  4905 ;;		None
  4906 ;; Auto vars:     Size  Location     Type
  4907 ;;		None
  4908 ;; Return value:  Size  Location     Type
  4909 ;;                  1    wreg      void 
  4910 ;; Registers used:
  4911 ;;		wreg, status,2, status,0, pclath, btemp1, cstack
  4912 ;; Tracked objects:
  4913 ;;		On entry : 0/0
  4914 ;;		On exit  : 0/0
  4915 ;;		Unchanged: 0/0
  4916 ;; Data sizes:     COMMON   BANK0   BANK1   BANK3   BANK2
  4917 ;;      Params:         0       0       0       0       0
  4918 ;;      Locals:         0       0       0       0       0
  4919 ;;      Temps:          3       0       0       0       0
  4920 ;;      Totals:         3       0       0       0       0
  4921 ;;Total ram usage:        3 bytes
  4922 ;; Hardware stack levels used: 1
  4923 ;; Hardware stack levels required when called: 1
  4924 ;; This function calls:
  4925 ;;		___lwmod
  4926 ;; This function is called by:
  4927 ;;		Interrupt level 1
  4928 ;; This function uses a non-reentrant model
  4929 ;;
  4930                           
  4931     0421                     _isr:	
  4932                           ;psect for function _isr
  4933                           
  4934     0421                     i1l2135:
  4935                           
  4936                           ;isr.c: 11:     static unsigned int count = 0;;isr.c: 13:     if (TMR2IF == 1)
  4937     0421  1283               	bcf	3,5	;RP0=0, select bank0
  4938     0422  1303               	bcf	3,6	;RP1=0, select bank0
  4939     0423  1C8C               	btfss	12,1	;volatile
  4940     0424  2C26               	goto	u179_21
  4941     0425  2C27               	goto	u179_20
  4942     0426                     u179_21:
  4943     0426  2C96               	goto	i1l59
  4944     0427                     u179_20:
  4945     0427                     i1l2137:
  4946                           
  4947                           ;isr.c: 14:     {;isr.c: 15:         count++;
  4948     0427  3001               	movlw	1
  4949     0428  07F8               	addwf	isr@count,f
  4950     0429  1803               	skipnc
  4951     042A  0AF9               	incf	isr@count+1,f
  4952     042B  3000               	movlw	0
  4953     042C  07F9               	addwf	isr@count+1,f
  4954     042D                     i1l2139:
  4955                           
  4956                           ;isr.c: 17:         if (count % 625 == 0)
  4957     042D  3071               	movlw	113
  4958     042E  00F0               	movwf	___lwmod@divisor
  4959     042F  3002               	movlw	2
  4960     0430  00F1               	movwf	___lwmod@divisor+1
  4961     0431  0879               	movf	isr@count+1,w
  4962     0432  00F3               	movwf	___lwmod@dividend+1
  4963     0433  0878               	movf	isr@count,w
  4964     0434  00F2               	movwf	___lwmod@dividend
  4965     0435  120A  158A  26B3  120A  118A  	fcall	___lwmod
  4966     043A  0870               	movf	?___lwmod,w
  4967     043B  0471               	iorwf	?___lwmod+1,w
  4968     043C  1D03               	btfss	3,2
  4969     043D  2C3F               	goto	u180_21
  4970     043E  2C40               	goto	u180_20
  4971     043F                     u180_21:
  4972     043F  2C4A               	goto	i1l53
  4973     0440                     u180_20:
  4974     0440                     i1l2141:
  4975                           
  4976                           ;isr.c: 18:         {;isr.c: 19:             blink = !blink;
  4977     0440  1283               	bcf	3,5	;RP0=0, select bank0
  4978     0441  1303               	bcf	3,6	;RP1=0, select bank0
  4979     0442  0842               	movf	_blink,w
  4980     0443  1903               	btfsc	3,2
  4981     0444  2C46               	goto	u181_21
  4982     0445  2C48               	goto	u181_20
  4983     0446                     u181_21:
  4984     0446  3001               	movlw	1
  4985     0447  2C49               	goto	u182_20
  4986     0448                     u181_20:
  4987     0448  3000               	movlw	0
  4988     0449                     u182_20:
  4989     0449  00C2               	movwf	_blink
  4990     044A                     i1l53:	
  4991                           ;isr.c: 20:         }
  4992                           
  4993                           
  4994                           ;isr.c: 22:         if (count == 1250)
  4995     044A  30E2               	movlw	226
  4996     044B  0678               	xorwf	isr@count,w
  4997     044C  3004               	movlw	4
  4998     044D  1903               	skipnz
  4999     044E  0679               	xorwf	isr@count+1,w
  5000     044F  1D03               	btfss	3,2
  5001     0450  2C52               	goto	u183_21
  5002     0451  2C53               	goto	u183_20
  5003     0452                     u183_21:
  5004     0452  2C93               	goto	i1l2157
  5005     0453                     u183_20:
  5006     0453                     i1l2143:
  5007                           
  5008                           ;isr.c: 23:         {;isr.c: 24:             count = 0;
  5009     0453  01F8               	clrf	isr@count
  5010     0454  01F9               	clrf	isr@count+1
  5011     0455                     i1l2145:
  5012                           
  5013                           ;isr.c: 26:             if (countdown_flag == 1)
  5014     0455  1283               	bcf	3,5	;RP0=0, select bank0
  5015     0456  1303               	bcf	3,6	;RP1=0, select bank0
  5016     0457  0341               	decf	_countdown_flag,w
  5017     0458  1D03               	btfss	3,2
  5018     0459  2C5B               	goto	u184_21
  5019     045A  2C5C               	goto	u184_20
  5020     045B                     u184_21:
  5021     045B  2C93               	goto	i1l2157
  5022     045C                     u184_20:
  5023     045C                     i1l2147:
  5024                           
  5025                           ;isr.c: 27:             {;isr.c: 28:                 if(sec > 0)
  5026     045C  083C               	movf	_sec+1,w
  5027     045D  3A80               	xorlw	128
  5028     045E  00FF               	movwf	btemp1
  5029     045F  3080               	movlw	128
  5030     0460  027F               	subwf	btemp1,w
  5031     0461  1D03               	skipz
  5032     0462  2C65               	goto	u185_25
  5033     0463  3001               	movlw	1
  5034     0464  023B               	subwf	_sec,w
  5035     0465                     u185_25:
  5036     0465  1C03               	skipc
  5037     0466  2C68               	goto	u185_21
  5038     0467  2C69               	goto	u185_20
  5039     0468                     u185_21:
  5040     0468  2C72               	goto	i1l2151
  5041     0469                     u185_20:
  5042     0469                     i1l2149:
  5043                           
  5044                           ;isr.c: 29:                 {;isr.c: 30:                     sec--;
  5045     0469  30FF               	movlw	255
  5046     046A  1283               	bcf	3,5	;RP0=0, select bank0
  5047     046B  1303               	bcf	3,6	;RP1=0, select bank0
  5048     046C  07BB               	addwf	_sec,f
  5049     046D  1803               	skipnc
  5050     046E  0ABC               	incf	_sec+1,f
  5051     046F  30FF               	movlw	255
  5052     0470  07BC               	addwf	_sec+1,f
  5053                           
  5054                           ;isr.c: 31:                 }
  5055     0471  2C93               	goto	i1l2157
  5056     0472                     i1l2151:
  5057     0472  1283               	bcf	3,5	;RP0=0, select bank0
  5058     0473  1303               	bcf	3,6	;RP1=0, select bank0
  5059     0474  083B               	movf	_sec,w
  5060     0475  043C               	iorwf	_sec+1,w
  5061     0476  1D03               	btfss	3,2
  5062     0477  2C79               	goto	u186_21
  5063     0478  2C7A               	goto	u186_20
  5064     0479                     u186_21:
  5065     0479  2C93               	goto	i1l2157
  5066     047A                     u186_20:
  5067     047A                     i1l2153:
  5068     047A  083A               	movf	_min+1,w
  5069     047B  3A80               	xorlw	128
  5070     047C  00FF               	movwf	btemp1
  5071     047D  3080               	movlw	128
  5072     047E  027F               	subwf	btemp1,w
  5073     047F  1D03               	skipz
  5074     0480  2C83               	goto	u187_25
  5075     0481  3001               	movlw	1
  5076     0482  0239               	subwf	_min,w
  5077     0483                     u187_25:
  5078     0483  1C03               	skipc
  5079     0484  2C86               	goto	u187_21
  5080     0485  2C87               	goto	u187_20
  5081     0486                     u187_21:
  5082     0486  2C93               	goto	i1l2157
  5083     0487                     u187_20:
  5084     0487                     i1l2155:
  5085                           
  5086                           ;isr.c: 33:                 {;isr.c: 34:                     min--;
  5087     0487  30FF               	movlw	255
  5088     0488  1283               	bcf	3,5	;RP0=0, select bank0
  5089     0489  1303               	bcf	3,6	;RP1=0, select bank0
  5090     048A  07B9               	addwf	_min,f
  5091     048B  1803               	skipnc
  5092     048C  0ABA               	incf	_min+1,f
  5093     048D  30FF               	movlw	255
  5094     048E  07BA               	addwf	_min+1,f
  5095                           
  5096                           ;isr.c: 35:                     sec = 59;
  5097     048F  303B               	movlw	59
  5098     0490  00BB               	movwf	_sec
  5099     0491  3000               	movlw	0
  5100     0492  00BC               	movwf	_sec+1
  5101     0493                     i1l2157:
  5102                           
  5103                           ;isr.c: 39:         TMR2IF = 0;
  5104     0493  1283               	bcf	3,5	;RP0=0, select bank0
  5105     0494  1303               	bcf	3,6	;RP1=0, select bank0
  5106     0495  108C               	bcf	12,1	;volatile
  5107     0496                     i1l59:
  5108     0496  0877               	movf	??_isr+2,w
  5109     0497  00FF               	movwf	btemp1
  5110     0498  0876               	movf	??_isr+1,w
  5111     0499  008A               	movwf	10
  5112     049A  0E75               	swapf	??_isr,w
  5113     049B  0083               	movwf	3
  5114     049C  0EFE               	swapf	btemp,f
  5115     049D  0E7E               	swapf	btemp,w
  5116     049E  0009               	retfie
  5117     049F                     __end_of_isr:
  5118                           
  5119                           	psect	intentry
  5120     0004                     __pintentry:	
  5121                           ;incstack = 0
  5122                           ; Regs used in _isr: [wreg+status,2+status,0+pclath+btemp1+cstack]
  5123                           
  5124     0004                     interrupt_function:
  5125     007E                     saved_w         set	btemp
  5126     0004  00FE               	movwf	btemp
  5127     0005  0E03               	swapf	3,w
  5128     0006  00F5               	movwf	??_isr
  5129     0007  080A               	movf	10,w
  5130     0008  00F6               	movwf	??_isr+1
  5131     0009  087F               	movf	btemp1,w
  5132     000A  00F7               	movwf	??_isr+2
  5133     000B  120A  118A  2C21   	ljmp	_isr
  5134                           
  5135                           	psect	text21
  5136     0EB3                     __ptext21:	
  5137 ;; *************** function ___lwmod *****************
  5138 ;; Defined at:
  5139 ;;		line 5 in file "C:\Program Files\Microchip\xc8\v3.10\pic\sources\c99\common\lwmod.c"
  5140 ;; Parameters:    Size  Location     Type
  5141 ;;  divisor         2    0[COMMON] unsigned int 
  5142 ;;  dividend        2    2[COMMON] unsigned int 
  5143 ;; Auto vars:     Size  Location     Type
  5144 ;;  counter         1    4[COMMON] unsigned char 
  5145 ;; Return value:  Size  Location     Type
  5146 ;;                  2    0[COMMON] unsigned int 
  5147 ;; Registers used:
  5148 ;;		wreg, status,2, status,0
  5149 ;; Tracked objects:
  5150 ;;		On entry : 0/0
  5151 ;;		On exit  : 0/0
  5152 ;;		Unchanged: 0/0
  5153 ;; Data sizes:     COMMON   BANK0   BANK1   BANK3   BANK2
  5154 ;;      Params:         4       0       0       0       0
  5155 ;;      Locals:         1       0       0       0       0
  5156 ;;      Temps:          0       0       0       0       0
  5157 ;;      Totals:         5       0       0       0       0
  5158 ;;Total ram usage:        5 bytes
  5159 ;; Hardware stack levels used: 1
  5160 ;; This function calls:
  5161 ;;		Nothing
  5162 ;; This function is called by:
  5163 ;;		_isr
  5164 ;; This function uses a non-reentrant model
  5165 ;;
  5166                           
  5167     0EB3                     ___lwmod:	
  5168                           ;psect for function ___lwmod
  5169                           
  5170     0EB3                     i1l2113:	
  5171                           ;incstack = 0
  5172                           ; Regs used in ___lwmod: [wreg+status,2+status,0]
  5173                           
  5174     0EB3  0870               	movf	___lwmod@divisor,w
  5175     0EB4  0471               	iorwf	___lwmod@divisor+1,w
  5176     0EB5  1903               	btfsc	3,2
  5177     0EB6  2EB8               	goto	u173_21
  5178     0EB7  2EB9               	goto	u173_20
  5179     0EB8                     u173_21:
  5180     0EB8  2EE6               	goto	i1l2131
  5181     0EB9                     u173_20:
  5182     0EB9                     i1l2115:
  5183     0EB9  3001               	movlw	1
  5184     0EBA  00F4               	movwf	___lwmod@counter
  5185     0EBB  2EC5               	goto	i1l2121
  5186     0EBC                     i1l2117:
  5187     0EBC  3001               	movlw	1
  5188     0EBD                     u174_25:
  5189     0EBD  1003               	clrc
  5190     0EBE  0DF0               	rlf	___lwmod@divisor,f
  5191     0EBF  0DF1               	rlf	___lwmod@divisor+1,f
  5192     0EC0  3EFF               	addlw	-1
  5193     0EC1  1D03               	skipz
  5194     0EC2  2EBD               	goto	u174_25
  5195     0EC3                     i1l2119:
  5196     0EC3  3001               	movlw	1
  5197     0EC4  07F4               	addwf	___lwmod@counter,f
  5198     0EC5                     i1l2121:
  5199     0EC5  1FF1               	btfss	___lwmod@divisor+1,7
  5200     0EC6  2EC8               	goto	u175_21
  5201     0EC7  2EC9               	goto	u175_20
  5202     0EC8                     u175_21:
  5203     0EC8  2EBC               	goto	i1l2117
  5204     0EC9                     u175_20:
  5205     0EC9                     i1l2123:
  5206     0EC9  0871               	movf	___lwmod@divisor+1,w
  5207     0ECA  0273               	subwf	___lwmod@dividend+1,w
  5208     0ECB  1D03               	skipz
  5209     0ECC  2ECF               	goto	u176_25
  5210     0ECD  0870               	movf	___lwmod@divisor,w
  5211     0ECE  0272               	subwf	___lwmod@dividend,w
  5212     0ECF                     u176_25:
  5213     0ECF  1C03               	skipc
  5214     0ED0  2ED2               	goto	u176_21
  5215     0ED1  2ED3               	goto	u176_20
  5216     0ED2                     u176_21:
  5217     0ED2  2ED9               	goto	i1l2127
  5218     0ED3                     u176_20:
  5219     0ED3                     i1l2125:
  5220     0ED3  0870               	movf	___lwmod@divisor,w
  5221     0ED4  02F2               	subwf	___lwmod@dividend,f
  5222     0ED5  0871               	movf	___lwmod@divisor+1,w
  5223     0ED6  1C03               	skipc
  5224     0ED7  03F3               	decf	___lwmod@dividend+1,f
  5225     0ED8  02F3               	subwf	___lwmod@dividend+1,f
  5226     0ED9                     i1l2127:
  5227     0ED9  3001               	movlw	1
  5228     0EDA                     u177_25:
  5229     0EDA  1003               	clrc
  5230     0EDB  0CF1               	rrf	___lwmod@divisor+1,f
  5231     0EDC  0CF0               	rrf	___lwmod@divisor,f
  5232     0EDD  3EFF               	addlw	-1
  5233     0EDE  1D03               	skipz
  5234     0EDF  2EDA               	goto	u177_25
  5235     0EE0                     i1l2129:
  5236     0EE0  3001               	movlw	1
  5237     0EE1  02F4               	subwf	___lwmod@counter,f
  5238     0EE2  1D03               	btfss	3,2
  5239     0EE3  2EE5               	goto	u178_21
  5240     0EE4  2EE6               	goto	u178_20
  5241     0EE5                     u178_21:
  5242     0EE5  2EC9               	goto	i1l2123
  5243     0EE6                     u178_20:
  5244     0EE6                     i1l2131:
  5245     0EE6  0873               	movf	___lwmod@dividend+1,w
  5246     0EE7  00F1               	movwf	?___lwmod+1
  5247     0EE8  0872               	movf	___lwmod@dividend,w
  5248     0EE9  00F0               	movwf	?___lwmod
  5249     0EEA                     i1l675:
  5250     0EEA  0008               	return
  5251     0EEB                     __end_of___lwmod:
  5252     0002                     ___latbits      equ	2
  5253     007E                     btemp           set	126	;btemp
  5254     007E                     btemp0          set	126
  5255     007F                     btemp1          set	127
  5256     007E                     wtemp0          set	126
  5257     007F                     wtemp0a         set	127
  5258     007F                     ttemp0a         set	127
  5259     0080                     ltemp0a         set	128
  5260                           
  5261                           	psect	config
  5262                           
  5263                           ;Config register CONFIG @ 0x2007
  5264                           ;	Oscillator Selection bits
  5265                           ;	FOSC = 0x3, unprogrammed default
  5266                           ;	Watchdog Timer Enable bit
  5267                           ;	WDTE = OFF, WDT disabled
  5268                           ;	Power-up Timer Enable bit
  5269                           ;	PWRTE = 0x1, unprogrammed default
  5270                           ;	Brown-out Reset Enable bit
  5271                           ;	BOREN = 0x1, unprogrammed default
  5272                           ;	Low-Voltage (Single-Supply) In-Circuit Serial Programming Enable bit
  5273                           ;	LVP = 0x1, unprogrammed default
  5274                           ;	Data EEPROM Memory Code Protection bit
  5275                           ;	CPD = 0x1, unprogrammed default
  5276                           ;	Flash Program Memory Write Enable bits
  5277                           ;	WRT = 0x3, unprogrammed default
  5278                           ;	In-Circuit Debugger Mode bit
  5279                           ;	DEBUG = 0x1, unprogrammed default
  5280                           ;	Flash Program Memory Code Protection bit
  5281                           ;	CP = 0x1, unprogrammed default
  5282     2007                     	org	8199
  5283     2007  3FFB               	dw	16379

Data Sizes:
    Strings     239
    Constant    0
    Data        2
    BSS         22
    Persistent  0
    Stack       0

Auto Spaces:
    Space          Size  Autos    Used
    COMMON           14      8      10
    BANK0            80     25      47
    BANK1            80      0       0
    BANK3            96      0       0
    BANK2            96      0       0

Pointer List with Targets:

    clcd_print@str	PTR const unsigned char  size(2) Largest target is 17
		 -> Mins(BANK0[3]), Secs(BANK0[3]), STR_1(CODE[8]), STR_10(CODE[3]), 
		 -> STR_11(CODE[3]), STR_12(CODE[16]), STR_13(CODE[10]), STR_14(CODE[17]), 
		 -> STR_15(CODE[4]), STR_16(CODE[17]), STR_17(CODE[13]), STR_18(CODE[9]), 
		 -> STR_19(CODE[15]), STR_2(CODE[8]), STR_20(CODE[8]), STR_21(CODE[7]), 
		 -> STR_22(CODE[11]), STR_23(CODE[16]), STR_3(CODE[13]), STR_4(CODE[8]), 
		 -> STR_5(CODE[17]), STR_6(CODE[17]), STR_7(CODE[17]), STR_8(CODE[12]), 
		 -> STR_9(CODE[17]), Temp(BANK0[4]), 


Critical Paths under _main in COMMON

    None.

Critical Paths under _isr in COMMON

    _isr->___lwmod

Critical Paths under _main in BANK0

    _main->_set_time
    _set_time->___wmul
    ___wmul->___awmod
    _read_matrix_keypad->_scan_keypad
    _power_on->_clcd_print
    _init_clcd->_init_display_controller
    _init_display_controller->_clcd_write
    _display_timer->___awmod
    _clcd_putch->_clcd_write
    _convection->___awmod
    _clear_screen->_clcd_write
    _clcd_print->_clcd_write
    ___awmod->___awdiv

Critical Paths under _isr in BANK0

    None.

Critical Paths under _main in BANK1

    None.

Critical Paths under _isr in BANK1

    None.

Critical Paths under _main in BANK3

    None.

Critical Paths under _isr in BANK3

    None.

Critical Paths under _main in BANK2

    None.

Critical Paths under _isr in BANK2

    None.

Call Graph Tables:

 ---------------------------------------------------------------------------------
 (Depth) Function   	        Calls       Base Space   Used Autos Params    Refs
 ---------------------------------------------------------------------------------
 (0) _main                                                 3     3      0    5588
                                             22 BANK0      3     3      0
                         _clcd_print
                       _clear_screen
                         _convection
                      _display_timer
                        _init_config
                           _power_on
                 _read_matrix_keypad
                           _set_time
 ---------------------------------------------------------------------------------
 (1) _set_time                                             2     1      1    1480
                                             20 BANK0      2     1      1
                            ___awdiv
                            ___awmod
                             ___wmul
                         _clcd_print
                       _clear_screen
 ---------------------------------------------------------------------------------
 (2) ___wmul                                               6     2      4      32
                                             14 BANK0      6     2      4
                            ___awmod (ARG)
 ---------------------------------------------------------------------------------
 (1) _read_matrix_keypad                                   2     2      0     210
                                              2 BANK0      2     2      0
                        _scan_keypad
 ---------------------------------------------------------------------------------
 (2) _scan_keypad                                          2     2      0      92
                                              0 BANK0      2     2      0
 ---------------------------------------------------------------------------------
 (1) _power_on                                             7     7      0     503
                                              7 BANK0      7     7      0
                         _clcd_print
                         _clcd_putch
 ---------------------------------------------------------------------------------
 (1) _init_config                                          0     0      0      92
                          _init_clcd
                 _init_matrix_keypad
                        _init_timer2
 ---------------------------------------------------------------------------------
 (2) _init_timer2                                          0     0      0       0
 ---------------------------------------------------------------------------------
 (2) _init_matrix_keypad                                   0     0      0       0
 ---------------------------------------------------------------------------------
 (2) _init_clcd                                            0     0      0      92
            _init_display_controller
 ---------------------------------------------------------------------------------
 (3) _init_display_controller                              2     2      0      92
                                              4 BANK0      2     2      0
                         _clcd_write
 ---------------------------------------------------------------------------------
 (1) _display_timer                                        5     4      1    1204
                                             14 BANK0      5     4      1
                            ___awdiv
                            ___awmod
                         _clcd_print
                         _clcd_putch
                       _clear_screen
 ---------------------------------------------------------------------------------
 (2) _clcd_putch                                           2     1      1     146
                                              4 BANK0      2     1      1
                         _clcd_write
 ---------------------------------------------------------------------------------
 (1) _convection                                           4     3      1    1222
                                             14 BANK0      4     3      1
                            ___awdiv
                            ___awmod
                             ___bmul
                         _clcd_print
                       _clear_screen
 ---------------------------------------------------------------------------------
 (2) _clear_screen                                         0     0      0      92
                         _clcd_write
 ---------------------------------------------------------------------------------
 (2) _clcd_print                                           3     0      3     221
                                              4 BANK0      3     0      3
                         _clcd_write
 ---------------------------------------------------------------------------------
 (4) _clcd_write                                           4     3      1      92
                                              0 BANK0      4     3      1
 ---------------------------------------------------------------------------------
 (2) ___bmul                                               3     2      1     108
                                              0 BANK0      3     2      1
 ---------------------------------------------------------------------------------
 (2) ___awmod                                              6     2      4     300
                                              8 BANK0      6     2      4
                            ___awdiv (ARG)
 ---------------------------------------------------------------------------------
 (2) ___awdiv                                              8     4      4     304
                                              0 BANK0      8     4      4
 ---------------------------------------------------------------------------------
 Estimated maximum stack depth 4
 ---------------------------------------------------------------------------------
 (Depth) Function   	        Calls       Base Space   Used Autos Params    Refs
 ---------------------------------------------------------------------------------
 (5) _isr                                                  3     3      0     161
                                              5 COMMON     3     3      0
                            ___lwmod
 ---------------------------------------------------------------------------------
 (6) ___lwmod                                              5     1      4     161
                                              0 COMMON     5     1      4
 ---------------------------------------------------------------------------------
 Estimated maximum stack depth 6
 ---------------------------------------------------------------------------------

 Call Graph Graphs:

 _main (ROOT)
   _clcd_print
     _clcd_write
   _clear_screen
     _clcd_write
   _convection
     ___awdiv
     ___awmod
       ___awdiv (ARG)
     ___bmul
     _clcd_print
     _clear_screen
   _display_timer
     ___awdiv
     ___awmod
     _clcd_print
     _clcd_putch
       _clcd_write
     _clear_screen
   _init_config
     _init_clcd
       _init_display_controller
         _clcd_write
     _init_matrix_keypad
     _init_timer2
   _power_on
     _clcd_print
     _clcd_putch
   _read_matrix_keypad
     _scan_keypad
   _set_time
     ___awdiv
     ___awmod
     ___wmul
       ___awmod (ARG)
     _clcd_print
     _clear_screen

 _isr (ROOT)
   ___lwmod

Address spaces:
Name               Size   Autos  Total    Usage
BANK3               96      0       0      0.0%
BITBANK3            96      0       0      0.0%
BANK2               96      0       0      0.0%
BITBANK2            96      0       0      0.0%
BANK1               80      0       0      0.0%
BITBANK1            80      0       0      0.0%
BANK0               80     25      47     58.8%
BITBANK0            80      0       0      0.0%
COMMON              14      8      10     71.4%
BITCOMMON           14      0       0      0.0%
DATA                 0      0      56      0.0%
STACK                0      0       0      0.0%


Microchip Technology PIC Macro Assembler V3.10 build 20250813170317 
Symbol Table                                                                                   Tue Jul  7 13:21:28 2026

                              pc 0002                   ___bmul@product 0021                   clcd_print@addr 0026  
                             l20 07EC                               l23 0DDC                               l32 0EB2  
                             l17 0F28                               l26 0E13                               l35 0DD1  
                   ___awdiv@sign 0025                               fsr 0004              ___wmul@multiplicand 0030  
             _init_matrix_keypad 07ED                              l100 0E31                              l110 065D  
                            l117 0694                              l150 07FC                              l234 0FFF  
                            l411 0DFE                              l155 06E2                              l180 075A  
                            l172 0732                              l164 070A                              l156 06E8  
                            l261 02F0                              l181 0760                              l173 0738  
                            l165 0710                              l157 076D                              l174 0744  
                            l166 071C                              l158 06F4                              l246 019B  
                            l183 0766                              l175 073E                              l167 0716  
                            l159 06EE                              l191 0E58                              l281 0420  
                            l551 04F7                              l385 0E67                              l538 0F8D  
                            l299 0DE9                              l387 0E7F                              _GIE 005F  
                            _RB0 0030                              _RB1 0031                              _RB2 0032  
                            _RC1 0039                              _RC2 003A                              _RD0 0040  
                            _RD1 0041                              _RD2 0042                              _RE1 0049  
                            _RD3 0043                              _RE2 004A                              _PR2 0092  
                            u920 0EF5                              u921 0EF1                              u934 0EF8  
                            u950 0EB2                              u951 0EB1                              u960 06E2  
                            u945 0F0A                              u961 06E1                              u970 06E6  
                            u971 06E5                              u980 06EC                              u981 06EB  
                            u990 06F2                              u991 06F1                              _min 0039  
                            _sec 003B                              _isr 0421                   clcd_putch@addr 0024  
                            fsr0 0004                   clcd_putch@data 0025                              indf 0000  
                   ___awmod@sign 002D              ?_init_matrix_keypad 0070                             l2001 0291  
                           l2011 02DC                             l2003 029D                             l2013 02E7  
                           l2005 02B5                             l2101 03EB                             l2015 02EF  
                           l2007 02C9                             l2103 03FD                             l2031 030E  
                           l2023 02F4                             l2009 02DB                             l2105 0408  
                           l2041 033A                             l2033 031B                             l2025 02FA  
                           l2107 0412                             l2051 034F                             l2035 0328  
                           l2027 02FF                             l2043 033B                             l2109 041F  
                           l2061 036C                             l2053 0350                             l2045 0341  
                           l2037 0335                             l2029 0303                             l2071 0385  
                           l2063 037A                             l2055 0351                             l2047 0347  
                           l2039 0339                             l1521 0EF8                             l2081 03A0  
                           l2073 038A                             l2065 037D                             l2057 035C  
                           l2049 034C                             l1601 06D4                             l2401 00DA  
                           l1531 0F12                             l1523 0EFB                             l2083 03A6  
                           l2075 0393                             l2059 0369                             l1603 06E6  
                           l2411 00F2                             l2403 00DC                             l1701 0F30  
                           l1533 0F13                             l1525 0EFC                             l2085 03AA  
                           l2077 0399                             l2069 037F                             l1541 0779  
                           l1621 06FC                             l2421 0142                             l2413 00F3  
                           l2405 00DF                             l1711 0F42                             l1703 0F35  
                           l1535 0F1A                             l1527 0F03                             l1519 0EEE  
                           l2087 03B0                             l2095 03B4                             l2079 039E  
                           l1551 07A9                             l1543 0782                             l1623 070E  
                           l1615 06F2                             l2351 0E59                             l2431 0171  
                           l2423 014D                             l2407 00E5                             l1721 0F56  
                           l1713 0F44                             l1705 0F37                             l1537 0F1D  
                           l1529 0F06                             l2097 03D8                             l2089 03B2  
                           l1561 07E5                             l1553 07B2                             l1545 0796  
                           l1801 0F92                             l1641 0724                             l1609 06EC  
                           l2361 0E7B                             l2353 0E5D                             l2433 017C  
                           l2425 0154                             l2409 00EC                             l2417 00F5  
                           l1731 0F79                             l1723 0F5A                             l1715 0F4A  
                           l1707 0F3B                             l1571 0E02                             l2099 03D9  
                           l1555 07C2                             l1547 079D                             l1539 076E  
                           l1563 0DD2                             l1803 0F9D                             l1643 0736  
                           l1635 071A                             l1619 06F8                             l2355 0E61  
                           l2435 0183                             l2427 0160                             l2419 013D  
                           l2371 0047                             l2451 060F                             l2443 05FF  
                           l1725 0F6B                             l1717 0F4D                             l1733 0F7F  
                           l1709 0F40                             l1741 049F                             l1573 0E80  
                           l1581 0DC8                             l1557 07C9                             l1549 07A6  
                           l1565 0DD5                             l1821 0FF0                             l1805 0FA5  
                           l1661 074C                             l1629 0714                             l2357 0E6E  
                           l2437 018F                             l2429 016C                             l2381 0068  
                           l2373 0054                             l2365 002F                             l2461 0664  
                           l2453 0614                             l2445 0604                             l1735 0F84  
                           l1727 0F71                             l1719 0F54                             l1751 04B1  
                           l1743 04A2                             l1575 0E8A                             l1559 07DC  
                           l1567 0DD6                             l1591 07FA                             l1583 07ED  
                           l1815 0FD0                             l1807 0FB2                             l1663 075E  
                           l1655 0742                             l1639 0720                             l1823 0E35  
                           l2359 0E75                             l2439 019A                             l2391 0080  
                           l2375 0061                             l2367 0035                             l2383 0069  
                           l2471 067B                             l2463 066A                             l2455 061E  
                           l2447 0608                             l1737 0F89                             l1729 0F72  
                           l1761 04C8                             l1753 04B6                             l1745 04A6  
                           l1577 0E9A                             l1569 0DD7                             l1593 07FB  
                           l1585 07F5                             l1817 0FDB                             l1809 0FCC  
                           l1649 073C                             l1833 0E44                             l1825 0E3D  
                           l2393 00A6                             l2385 006E                             l2377 0065  
                           l2369 003A                             l2473 067D                             l2465 066F  
                           l2457 0650                             l2449 060A                             l1763 04CC  
                           l1755 04BC                             l1771 04E9                             l1747 04AB  
                           l1691 0DF6                             l1683 0DED                             l1579 0EA2  
                           l1931 019F                             l1587 07F6                             l1595 0DDD  
                           l1819 0FE3                             l1675 076A                             l1659 0748  
                           l1835 0E49                             l1827 0E42                             l2395 00A8  
                           l2387 0074                             l2379 0067                             l2483 06A7  
                           l2475 0680                             l2467 0675                             l2459 0657  
                           l2491 06B9                             l1773 04EE                             l1765 04D6  
                           l1757 04BF                             l1749 04AD                             l1693 0DFD  
                           l1685 0DEE                             l1941 01D1                             l1933 01A5  
                           l1589 07F9                             l1781 0E1E                             l1669 0764  
                           l1597 06CA                             l1837 0E4E                             l1845 0E50  
                           l2397 00AE                             l2389 007A                             l2485 06B4  
                           l2477 068D                             l2469 0677                             l1775 04F3  
                           l1767 04DC                             l1759 04C6                             l1687 0DF2  
                           l1943 01D4                             l1935 01AA                             l1791 0E2F  
                           l1783 0E23                             l1679 076C                             l1599 06D0  
                           l1847 0E55                             l2399 00B4                             l2479 0699  
                           l1697 0F29                             l1769 04E3                             l1689 0DF4  
                           l1961 01F0                             l1945 01D5                             l1937 01B7  
                           l1953 01DA                             l1793 0E30                             l1785 0E26  
                           l1849 0E57                             l1699 0F2C                             l1971 020E  
                           l1963 01F6                             l1955 01DF                             l1947 01D6  
                           l1939 01C4                             l1787 0E29                             l1779 0E14  
                           l1795 0F8E                             l1981 0223                             l1973 0214  
                           l1965 0202                             l1957 01E4                             l1949 01D8  
                           l1789 0E2C                             l1991 0246                             l1983 0224  
                           l1975 021A                             l1959 01EA                             l1967 0205  
                           l1993 026A                             l1985 0228                             l1977 021C  
                           l1969 020B                             l1995 027F                             l1987 022A  
                           l1979 0221                             l1997 0280                             l1989 022F  
                           l1999 0285                             ?_isr 0070                             STR_1 05E8  
                           STR_2 05E0                             STR_3 05A1                             STR_4 05F0  
                           STR_5 0510                             STR_6 0532                             STR_7 0543  
                           STR_8 05AE                             STR_9 0554                             u1000 070A  
                           u1001 0709                             u1010 070E                             u1011 070D  
                           u1100 0764                             u1020 0714                             u1101 0763  
                           u1021 0713                             u1110 076A                             u1030 071A  
                           u1111 0769                             u1031 0719                             u1200 0F6B  
                           u1120 0DF2                             u1040 0732                             u1201 0F6A  
                           u1121 0DF1                             u1041 0731                             u1130 0DFD  
                           u1050 0736                             u1131 0DFC                             u1051 0735  
                           u1220 0F7F                             u1140 0F30                             u1060 073C  
                           u1221 0F7E                             u1205 0F67                             u1141 0F2F  
                           u1061 073B                             u1230 0F84                             u1150 0F3B  
                           u1310 04E9                             u1070 0742                             u1231 0F83  
                           u1215 0F73                             u1151 0F3A                             u1311 04E8  
                           u1071 0741                             u1160 0F4A                             u1320 04EE  
                           u1240 04A6                             u1080 075A                             u1161 0F49  
                           u1321 04ED                             u1305 04DD                             u1241 04A5  
                           u1081 0759                             u1250 04B1                             u1330 0FB2  
                           u1090 075E                             u1251 04B0                             u1331 0FB1  
                           u1091 075D                             u1180 0F5A                             u1260 04BC  
                           u1340 0FF0                             u2220 0E7B                             u2300 00E5  
                           u1181 0F59                             u1261 04BB                             u1341 0FEF  
                           u2221 0E7A                             u2205 0E68                             u2301 00E4  
                           u1350 0E42                             u2310 00F2                             u2230 0035  
                           u1175 0F4E                             u1335 0FAE                             u1351 0E41  
                           u2215 0E6F                             u2311 00F1                             u2231 0034  
                           u1280 04CC                             u1600 021A                             u1520 01A5  
                           u1360 0E49                             u2320 0142                             u2240 006E  
                           u2400 068D                             u1281 04CB                             u1601 0219  
                           u1521 01A4                             u1345 0FEC                             u1361 0E48  
                           u2321 0141                             u2241 006D                             u2401 068C  
                           u1290 04D6                             u1610 0221                             u1530 01DF  
                           u1370 0E4E                             u2330 0154                             u2250 0074  
                           u2410 06A6                             u1195 0F5B                             u1291 04D5  
                           u1275 04C0                             u1611 0220                             u1531 01DE  
                           u1371 0E4D                             u2331 0153                             u2251 0073  
                           u2411 06A5                             u1620 0285                             u1540 01E4  
                           u1700 039E                             u1380 0E55                             u2340 0171  
                           u2260 007A                             u2420 06B4                             u1621 0284  
                           u1541 01E3                             u1701 039D                             u1381 0E54  
                           u2341 0170                             u2261 0079                             u2421 06B3  
                           u1630 02EF                             u1550 01EA                             u1710 03A6  
                           u2190 0E61                             u2350 0183                             u2270 0080  
                           u1295 04D2                             u1631 02EE                             u1551 01E9  
                           u1711 03A5                             u2191 0E60                             u2351 0182  
                           u2271 007F                             u1560 01F0                             u1720 03B0  
                           u1640 02FA                             u2280 00AE                             u2360 0657  
                           u1561 01EF                             u1721 03AF                             u1641 02F9  
                           u2281 00AD                             u2361 0656                             u1570 01F6  
                           u1650 0341                             u2290 00B4                             u2370 065D  
                           u1571 01F5                             u1651 0340                             u2507 07E9  
                           u2291 00B3                             u2371 065C                             u1580 020B  
                           u1660 0347                             u2380 066A                             u1581 020A  
                           u2517 0374                             u1661 0346                             u2437 0FF8  
                           u2381 0669                             u1590 0214                             u1670 0385  
                           u2390 0675                             u2527 0F00                             u1591 0213  
                           u1671 0384                             u2447 0774                             u2391 0674  
                           u1680 038A                             u2537 0F17                             u1681 0389  
                           u2457 0788                             u1690 0399                             u2547 0F23  
                           u1691 0398                             u2467 079A                             u2477 07B6  
                           u2487 07C6                             u2497 07D8                             _PEIE 005E  
                           i1l53 044A                             i1l59 0496                   ?_display_timer 002E  
                           _Mins 004A                             _Secs 0047                             _Temp 0043  
                           _main 05FF                             btemp 007E                             start 000E  
              ___bmul@multiplier 0022             ??_init_matrix_keypad 0020                   clcd_write@byte 0023  
                 clcd_write@mode 0020                            ??_isr 0075                            ?_main 0070  
                __end_of___awdiv 0F8E                            STR_10 051E                            STR_11 051E  
                          STR_20 05D8                            STR_12 0565                            STR_21 05F8  
                          STR_13 05C5                            STR_14 0554                            STR_22 05BA  
                          STR_15 051D                            STR_23 0575                            STR_16 0521  
                          STR_17 0594                            STR_18 05CF                            STR_19 0585  
                __end_of___awmod 04F8                  ___awdiv@divisor 0020                  __end_of___lwmod 0EEB  
                   ?_init_config 0070                            i1l675 0EEA                  ___awdiv@counter 0024  
                          _PORTD 0008                            _TRISB 0086                            _TRISD 0088  
                   ?_init_timer2 0070             __end_of_clear_screen 0DD2                            _nRBPU 040F  
             _read_matrix_keypad 0E32                            _blink 0042                            btemp0 007E  
                          btemp1 007F                            pclath 000A              ?_read_matrix_keypad 0070  
                          status 0003                            wtemp0 007E                     ?_scan_keypad 0070  
                __initialization 0011                     __end_of_main 06CA             ??_read_matrix_keypad 0022  
                         ??_main 0036                  ??_display_timer 002F                 ___awdiv@dividend 0022  
                         i1l2121 0EC5                           i1l2113 0EB3                           i1l2123 0EC9  
                         i1l2115 0EB9                           i1l2131 0EE6                           i1l2125 0ED3  
                         i1l2117 0EBC                           i1l2141 0440                           i1l2127 0ED9  
                         i1l2119 0EC3                           i1l2151 0472                           i1l2143 0453  
                         i1l2135 0421                           i1l2129 0EE0                           i1l2153 047A  
                         i1l2145 0455                           i1l2137 0427                           i1l2155 0487  
                         i1l2147 045C                           i1l2139 042D                           i1l2149 0469  
                         i1l2157 0493                           u180_20 0440                           u180_21 043F  
                         u173_20 0EB9                           u181_20 0448                           u173_21 0EB8  
                         u181_21 0446                           u182_20 0449                           u174_25 0EBD  
                         u175_20 0EC9                           u183_20 0453                           u175_21 0EC8  
                         u183_21 0452                           u176_20 0ED3                           u184_20 045C  
                         u176_21 0ED2                           u184_21 045B                           u176_25 0ECF  
                         u185_20 0469                           u185_21 0468                           u177_25 0EDA  
                         u185_25 0465                           u178_20 0EE6                           u186_20 047A  
                         u178_21 0EE5                           u186_21 0479                           u187_20 0487  
                         u179_20 0427                           u187_21 0486                           u179_21 0426  
                         u187_25 0483                           _TMR2IE 0461                           _TMR2IF 0061  
                         _TMR2ON 0092                           _TRISC1 0439                           _TRISC2 043A  
                         _TRISE1 0449                           _TRISE2 044A                           ___bmul 0DEA  
        _init_display_controller 076E                           ___wmul 0E59                        ??___awdiv 0024  
                      ??___awmod 002C                        ??___lwmod 0074                 ___awdiv@quotient 0026  
                ___awmod@divisor 0028                  ___awmod@counter 002C                    power_on@i_163 002C  
               __end_of_set_time 019C                           ltemp0a 0080                           saved_w 007E  
               __end_of_power_on 1000                           ttemp0a 007F                           wtemp0a 007F  
        __end_of__initialization 0028              ___bmul@multiplicand 0020                   __pcstackCOMMON 0070  
                   __pidataBANK0 07FD             convection@reset_flag 002E                       __pbssBANK0 0039  
      ??_init_display_controller 0024                       _clcd_print 0E80                       _clcd_putch 0DFF  
                     _clcd_write 0EEB                       __pmaintext 05FF                     _clear_screen 0DC8  
                        ?___bmul 0020                          ?___wmul 002E                       __pintentry 0004  
                 _countdown_flag 0041                          _T2CKPS0 0090                          _T2CKPS1 0091  
                     __stringtab 0500                       _convection 019C                    convection@key 0031  
                      ?_set_time 0034                          ___awdiv 0F29                          ___awmod 049F  
                      ?_power_on 0070                          ___lwmod 0EB3                          __ptext1 002C  
                        __ptext2 0E59                          __ptext3 0E32                          __ptext4 06CA  
                        __ptext5 0F8E                          __ptext6 0E14                          __ptext7 0DDD  
                        __ptext8 07ED                          __ptext9 0DD2          convection@set_temp_step 004D  
__end_of_init_display_controller 07ED                __end_of_init_clcd 0DDD                 ___awmod@dividend 002A  
                 main@reset_flag 0037                          main@key 0038                          clrloop0 04F9  
           end_of_initialization 0028                      set_time@key 0035                      ?_clcd_print 0024  
                    ?_clcd_putch 0024                      ?_clcd_write 0020                       ??_set_time 0035  
                     ??_power_on 0027                    clcd_print@str 0024            __end_of_display_timer 0421  
                    ?_convection 002E                   __end_of___bmul 0DFF                   __end_of___wmul 0E80  
            start_initialization 0011                     scan_keypad@i 0020           read_matrix_keypad@mode 0022  
         read_matrix_keypad@once 004E                      __end_of_isr 049F          display_timer@reset_flag 002E  
                       ??___bmul 0021                         ??___wmul 0032                      __pdataBANK0 004D  
                  ??_init_config 0026                    ??_init_timer2 0020                      __pbssCOMMON 0078  
                      ___latbits 0002                    __pcstackBANK0 0020               display_timer@pause 003D  
                  ??_scan_keypad 0020                        _blink_pos 003F                         ?___awdiv 0020  
                       ?___awmod 0028                         ?___lwmod 0070                        __pstrings 0500  
             set_time@reset_flag 0034                        _key_count 0040                        _init_clcd 0DD2  
            __end_of_init_config 0E32              __end_of_init_timer2 0DEA         ?_init_display_controller 0070  
              interrupt_function 0004                   ___wmul@product 0032                        clear_ram0 04F8  
                   ??_clcd_print 0027                     ??_clcd_putch 0025       __end_of_init_matrix_keypad 07FD  
                   ??_clcd_write 0021              __end_of_scan_keypad 076E                      __stringbase 050F  
              ___wmul@multiplier 002E               __end_of_clcd_print 0EB3               __end_of_clcd_putch 0E14  
                 convection@temp 003E               __end_of_clcd_write 0F29                       ?_init_clcd 0070  
                   ??_convection 002F            read_matrix_keypad@key 0023       __end_of_read_matrix_keypad 0E59  
             __end_of__stringtab 0510               __end_of_convection 02F1                      _init_config 0E14  
                    _init_timer2 0DDD                         __ptext10 076E                         __ptext11 02F1  
                       __ptext20 0421                         __ptext12 0DFF                         __ptext21 0EB3  
                       __ptext13 019C                         __ptext14 0DC8                         __ptext15 0E80  
                       __ptext16 0EEB                         __ptext17 0DEA                         __ptext18 049F  
                       __ptext19 0F29                      _scan_keypad 06CA                    ?_clear_screen 0070  
                       _set_time 002C                         _power_on 0F8E                        power_on@i 002A  
                       isr@count 0078                      ??_init_clcd 0026                 display_timer@key 0032  
                       intlevel1 0000                 ___lwmod@dividend 0072               main@operation_mode 0036  
                      stringcode 050A                   ??_clear_screen 0024                  ___lwmod@divisor 0070  
                ___lwmod@counter 0074                         stringdir 050A                         stringtab 0500  
                  _display_timer 02F1  
